
UltimateImgSpider.o:     file format elf32-littlearm


Disassembly of section .text.ashmem_create_region:

00000000 <ashmem_create_region>:
 */

#define ASHM_NAME_SIZE	32

int ashmem_create_region(const char *name, u32 size)
{
   0:	e92d4810 	push	{r4, fp, lr}
   4:	e28db008 	add	fp, sp, #8
   8:	e24dd03c 	sub	sp, sp, #60	; 0x3c
   c:	e50b0040 	str	r0, [fp, #-64]	; 0x40
  10:	e50b1044 	str	r1, [fp, #-68]	; 0x44
  14:	e59f412c 	ldr	r4, [pc, #300]	; 148 <ashmem_create_region+0x148>
  18:	e08f4004 	add	r4, pc, r4
  1c:	e59f3128 	ldr	r3, [pc, #296]	; 14c <ashmem_create_region+0x14c>
  20:	e7943003 	ldr	r3, [r4, r3]
  24:	e5933000 	ldr	r3, [r3]
  28:	e50b3010 	str	r3, [fp, #-16]
	int fd, fdWithOption;
	char buf[ASHM_NAME_SIZE];

	while (name && size)
  2c:	e1a00000 	nop			; (mov r0, r0)
  30:	e51b3040 	ldr	r3, [fp, #-64]	; 0x40
  34:	e3530000 	cmp	r3, #0
  38:	0a000037 	beq	11c <ashmem_create_region+0x11c>
  3c:	ea00002f 	b	100 <ashmem_create_region+0x100>
	{
		fd = open(ASHMEM_NAME_DEF, O_RDWR);
  40:	e59f3108 	ldr	r3, [pc, #264]	; 150 <ashmem_create_region+0x150>
  44:	e08f3003 	add	r3, pc, r3
  48:	e1a00003 	mov	r0, r3
  4c:	e3a01002 	mov	r1, #2
  50:	ebfffffe 	bl	0 <open>
  54:	e50b0038 	str	r0, [fp, #-56]	; 0x38
		if (fd < 0)
  58:	e51b3038 	ldr	r3, [fp, #-56]	; 0x38
  5c:	e3530000 	cmp	r3, #0
  60:	ba00002a 	blt	110 <ashmem_create_region+0x110>
		{
			break;
		}

		LOGI("ashmem open success %d", fd);
  64:	e3a00004 	mov	r0, #4
  68:	e59f30e4 	ldr	r3, [pc, #228]	; 154 <ashmem_create_region+0x154>
  6c:	e08f3003 	add	r3, pc, r3
  70:	e1a01003 	mov	r1, r3
  74:	e59f30dc 	ldr	r3, [pc, #220]	; 158 <ashmem_create_region+0x158>
  78:	e08f3003 	add	r3, pc, r3
  7c:	e1a02003 	mov	r2, r3
  80:	e51b3038 	ldr	r3, [fp, #-56]	; 0x38
  84:	ebfffffe 	bl	0 <__android_log_print>

		strlcpy(buf, name, sizeof(buf));
  88:	e24b3030 	sub	r3, fp, #48	; 0x30
  8c:	e1a00003 	mov	r0, r3
  90:	e51b1040 	ldr	r1, [fp, #-64]	; 0x40
  94:	e3a02020 	mov	r2, #32
  98:	ebfffffe 	bl	0 <strlcpy>
		fdWithOption = ioctl(fd, ASHMEM_SET_NAME, buf);
  9c:	e24b3030 	sub	r3, fp, #48	; 0x30
  a0:	e51b0038 	ldr	r0, [fp, #-56]	; 0x38
  a4:	e3071701 	movw	r1, #30465	; 0x7701
  a8:	e3441100 	movt	r1, #16640	; 0x4100
  ac:	e1a02003 	mov	r2, r3
  b0:	ebfffffe 	bl	0 <ioctl>
  b4:	e50b0034 	str	r0, [fp, #-52]	; 0x34
		if (fdWithOption < 0)
  b8:	e51b3034 	ldr	r3, [fp, #-52]	; 0x34
  bc:	e3530000 	cmp	r3, #0
  c0:	aa000002 	bge	d0 <ashmem_create_region+0xd0>
		{
			close(fd);
  c4:	e51b0038 	ldr	r0, [fp, #-56]	; 0x38
  c8:	ebfffffe 	bl	0 <close>
			break;
  cc:	ea000012 	b	11c <ashmem_create_region+0x11c>
		}
		fdWithOption = ioctl(fd, ASHMEM_SET_SIZE, size);
  d0:	e51b0038 	ldr	r0, [fp, #-56]	; 0x38
  d4:	e3071703 	movw	r1, #30467	; 0x7703
  d8:	e3441004 	movt	r1, #16388	; 0x4004
  dc:	e51b2044 	ldr	r2, [fp, #-68]	; 0x44
  e0:	ebfffffe 	bl	0 <ioctl>
  e4:	e50b0034 	str	r0, [fp, #-52]	; 0x34
		if (fdWithOption < 0)
  e8:	e51b3034 	ldr	r3, [fp, #-52]	; 0x34
  ec:	e3530000 	cmp	r3, #0
  f0:	aa000008 	bge	118 <ashmem_create_region+0x118>
		{
			close(fd);
  f4:	e51b0038 	ldr	r0, [fp, #-56]	; 0x38
  f8:	ebfffffe 	bl	0 <close>
			break;
  fc:	ea000006 	b	11c <ashmem_create_region+0x11c>
int ashmem_create_region(const char *name, u32 size)
{
	int fd, fdWithOption;
	char buf[ASHM_NAME_SIZE];

	while (name && size)
 100:	e51b3044 	ldr	r3, [fp, #-68]	; 0x44
 104:	e3530000 	cmp	r3, #0
 108:	1affffcc 	bne	40 <ashmem_create_region+0x40>
 10c:	ea000002 	b	11c <ashmem_create_region+0x11c>
	{
		fd = open(ASHMEM_NAME_DEF, O_RDWR);
		if (fd < 0)
		{
			break;
 110:	e1a00000 	nop			; (mov r0, r0)
 114:	ea000000 	b	11c <ashmem_create_region+0x11c>
		{
			close(fd);
			break;
		}

		break;
 118:	e1a00000 	nop			; (mov r0, r0)
	}

	return fd;
 11c:	e51b3038 	ldr	r3, [fp, #-56]	; 0x38
}
 120:	e1a00003 	mov	r0, r3
 124:	e59f3020 	ldr	r3, [pc, #32]	; 14c <ashmem_create_region+0x14c>
 128:	e7943003 	ldr	r3, [r4, r3]
 12c:	e51b2010 	ldr	r2, [fp, #-16]
 130:	e5933000 	ldr	r3, [r3]
 134:	e1520003 	cmp	r2, r3
 138:	0a000000 	beq	140 <ashmem_create_region+0x140>
 13c:	ebfffffe 	bl	0 <__stack_chk_fail>
 140:	e24bd008 	sub	sp, fp, #8
 144:	e8bd8810 	pop	{r4, fp, pc}
 148:	00000128 	.word	0x00000128
 14c:	00000000 	.word	0x00000000
 150:	00000104 	.word	0x00000104
 154:	000000ec 	.word	0x000000ec
 158:	000000e8 	.word	0x000000e8

Disassembly of section .text.findAshmemByName:

00000000 <findAshmemByName>:
t_ashmNode *ashmemChainHead=NULL;
t_ashmNode *ashmemChainTail=NULL;


t_ashmNode *findAshmemByName(const char *name)
{
   0:	e92d4800 	.word	0xe92d4800
   4:	e28db004 	add	fp, sp, #4
   8:	e24dd010 	sub	sp, sp, #16
   c:	e50b0010 	str	r0, [fp, #-16]
  10:	e59f3060 	ldr	r3, [pc, #96]	; 78 <findAshmemByName+0x78>
  14:	e08f3003 	add	r3, pc, r3
	t_ashmNode *ashmNode=ashmemChainHead;
  18:	e59f205c 	ldr	r2, [pc, #92]	; 7c <findAshmemByName+0x7c>
  1c:	e7933002 	ldr	r3, [r3, r2]
  20:	e5933000 	ldr	r3, [r3]
  24:	e50b3008 	str	r3, [fp, #-8]

	while(ashmNode!=NULL)
  28:	ea00000b 	b	5c <findAshmemByName+0x5c>
	{
		if(strcmp(ashmNode->name, name)==0)
  2c:	e51b3008 	ldr	r3, [fp, #-8]
  30:	e1a00003 	mov	r0, r3
  34:	e51b1010 	ldr	r1, [fp, #-16]
  38:	ebfffffe 	bl	0 <strcmp>
  3c:	e1a03000 	mov	r3, r0
  40:	e3530000 	cmp	r3, #0
  44:	1a000001 	bne	50 <findAshmemByName+0x50>
		{
			return ashmNode;
  48:	e51b3008 	ldr	r3, [fp, #-8]
  4c:	ea000006 	b	6c <findAshmemByName+0x6c>
		}

		ashmNode=ashmNode->next;
  50:	e51b3008 	ldr	r3, [fp, #-8]
  54:	e5933030 	ldr	r3, [r3, #48]	; 0x30
  58:	e50b3008 	str	r3, [fp, #-8]

t_ashmNode *findAshmemByName(const char *name)
{
	t_ashmNode *ashmNode=ashmemChainHead;

	while(ashmNode!=NULL)
  5c:	e51b3008 	ldr	r3, [fp, #-8]
  60:	e3530000 	cmp	r3, #0
  64:	1afffff0 	bne	2c <findAshmemByName+0x2c>
		}

		ashmNode=ashmNode->next;
	}

	return NULL;
  68:	e3a03000 	mov	r3, #0
}
  6c:	e1a00003 	mov	r0, r3
  70:	e24bd004 	sub	sp, fp, #4
  74:	e8bd8800 	pop	{fp, pc}
  78:	0000005c 	.word	0x0000005c
  7c:	00000000 	.word	0x00000000

Disassembly of section .text.Java_com_UltimateImgSpider_WatchdogService_jniGetAshmem:

00000000 <Java_com_UltimateImgSpider_WatchdogService_jniGetAshmem>:

int Java_com_UltimateImgSpider_WatchdogService_jniGetAshmem(JNIEnv* env,
		jobject thiz, jstring jname, jint size)
{
   0:	e92d4810 	push	{r4, fp, lr}
   4:	e28db008 	add	fp, sp, #8
   8:	e24dd034 	sub	sp, sp, #52	; 0x34
   c:	e50b0028 	str	r0, [fp, #-40]	; 0x28
  10:	e50b102c 	str	r1, [fp, #-44]	; 0x2c
  14:	e50b2030 	str	r2, [fp, #-48]	; 0x30
  18:	e50b3034 	str	r3, [fp, #-52]	; 0x34
  1c:	e59f42b0 	ldr	r4, [pc, #688]	; 2d4 <Java_com_UltimateImgSpider_WatchdogService_jniGetAshmem+0x2d4>
  20:	e08f4004 	add	r4, pc, r4
	int i, fd=-1;
  24:	e3e03000 	mvn	r3, #0
  28:	e50b3020 	str	r3, [fp, #-32]
	s64 fdWithOption;
	const char *name = (*env)->GetStringUTFChars(env, jname, NULL);
  2c:	e51b3028 	ldr	r3, [fp, #-40]	; 0x28
  30:	e5933000 	ldr	r3, [r3]
  34:	e59332a4 	ldr	r3, [r3, #676]	; 0x2a4
  38:	e51b0028 	ldr	r0, [fp, #-40]	; 0x28
  3c:	e51b1030 	ldr	r1, [fp, #-48]	; 0x30
  40:	e3a02000 	mov	r2, #0
  44:	e12fff33 	blx	r3
  48:	e50b001c 	str	r0, [fp, #-28]

	t_ashmNode *ashmNode=findAshmemByName(name);
  4c:	e51b001c 	ldr	r0, [fp, #-28]
  50:	ebfffffe 	bl	0 <Java_com_UltimateImgSpider_WatchdogService_jniGetAshmem>
  54:	e50b0018 	str	r0, [fp, #-24]
	if(ashmNode!=NULL)
  58:	e51b3018 	ldr	r3, [fp, #-24]
  5c:	e3530000 	cmp	r3, #0
  60:	0a000011 	beq	ac <Java_com_UltimateImgSpider_WatchdogService_jniGetAshmem+0xac>
	{
		ashmNode->ashmem->ashmStat=ASHM_EXIST;
  64:	e51b3018 	ldr	r3, [fp, #-24]
  68:	e593302c 	ldr	r3, [r3, #44]	; 0x2c
  6c:	e3a02000 	mov	r2, #0
  70:	e3822078 	orr	r2, r2, #120	; 0x78
  74:	e5c32000 	strb	r2, [r3]
  78:	e3a02000 	mov	r2, #0
  7c:	e3822056 	orr	r2, r2, #86	; 0x56
  80:	e5c32001 	strb	r2, [r3, #1]
  84:	e3a02000 	mov	r2, #0
  88:	e3822034 	orr	r2, r2, #52	; 0x34
  8c:	e5c32002 	strb	r2, [r3, #2]
  90:	e3a02000 	mov	r2, #0
  94:	e3822012 	orr	r2, r2, #18
  98:	e5c32003 	strb	r2, [r3, #3]
		fd=ashmNode->fd;
  9c:	e51b3018 	ldr	r3, [fp, #-24]
  a0:	e5933028 	ldr	r3, [r3, #40]	; 0x28
  a4:	e50b3020 	str	r3, [fp, #-32]
  a8:	ea00007e 	b	2a8 <Java_com_UltimateImgSpider_WatchdogService_jniGetAshmem+0x2a8>
	}
	else
	{
		fd = ashmem_create_region(name, size+sizeof(u32));
  ac:	e51b3034 	ldr	r3, [fp, #-52]	; 0x34
  b0:	e2833004 	add	r3, r3, #4
  b4:	e51b001c 	ldr	r0, [fp, #-28]
  b8:	e1a01003 	mov	r1, r3
  bc:	ebfffffe 	bl	0 <Java_com_UltimateImgSpider_WatchdogService_jniGetAshmem>
  c0:	e50b0020 	str	r0, [fp, #-32]
		if (fd >= 0)
  c4:	e51b3020 	ldr	r3, [fp, #-32]
  c8:	e3530000 	cmp	r3, #0
  cc:	ba000075 	blt	2a8 <Java_com_UltimateImgSpider_WatchdogService_jniGetAshmem+0x2a8>
		{
			LOGI("create ashmem name:%s size:%d fd:%d success!", name, size, fd);
  d0:	e51b3034 	ldr	r3, [fp, #-52]	; 0x34
  d4:	e58d3000 	str	r3, [sp]
  d8:	e51b3020 	ldr	r3, [fp, #-32]
  dc:	e58d3004 	str	r3, [sp, #4]
  e0:	e3a00004 	mov	r0, #4
  e4:	e59f31ec 	ldr	r3, [pc, #492]	; 2d8 <Java_com_UltimateImgSpider_WatchdogService_jniGetAshmem+0x2d8>
  e8:	e08f3003 	add	r3, pc, r3
  ec:	e1a01003 	mov	r1, r3
  f0:	e59f31e4 	ldr	r3, [pc, #484]	; 2dc <Java_com_UltimateImgSpider_WatchdogService_jniGetAshmem+0x2dc>
  f4:	e08f3003 	add	r3, pc, r3
  f8:	e1a02003 	mov	r2, r3
  fc:	e51b301c 	ldr	r3, [fp, #-28]
 100:	ebfffffe 	bl	0 <__android_log_print>

			t_ashmBlock *ashm = mmap(NULL, size, PROT_READ | PROT_WRITE,
 104:	e51b3034 	ldr	r3, [fp, #-52]	; 0x34
 108:	e51b2020 	ldr	r2, [fp, #-32]
 10c:	e58d2000 	str	r2, [sp]
 110:	e3a02000 	mov	r2, #0
 114:	e58d2004 	str	r2, [sp, #4]
 118:	e3a00000 	mov	r0, #0
 11c:	e1a01003 	mov	r1, r3
 120:	e3a02003 	mov	r2, #3
 124:	e3a03001 	mov	r3, #1
 128:	ebfffffe 	bl	0 <mmap>
 12c:	e50b0014 	str	r0, [fp, #-20]
			MAP_SHARED, fd, 0);
			if (ashm != NULL)
 130:	e51b3014 	ldr	r3, [fp, #-20]
 134:	e3530000 	cmp	r3, #0
 138:	0a00005a 	beq	2a8 <Java_com_UltimateImgSpider_WatchdogService_jniGetAshmem+0x2a8>
			{
				t_ashmNode *newAshmNode=malloc(sizeof(t_ashmNode));
 13c:	e3a00034 	mov	r0, #52	; 0x34
 140:	ebfffffe 	bl	0 <malloc>
 144:	e1a03000 	mov	r3, r0
 148:	e50b3010 	str	r3, [fp, #-16]
				if(newAshmNode!=NULL)
 14c:	e51b3010 	ldr	r3, [fp, #-16]
 150:	e3530000 	cmp	r3, #0
 154:	0a000053 	beq	2a8 <Java_com_UltimateImgSpider_WatchdogService_jniGetAshmem+0x2a8>
				{
					ashm->ashmStat=0;
 158:	e51b3014 	ldr	r3, [fp, #-20]
 15c:	e3a02000 	mov	r2, #0
 160:	e5c32000 	strb	r2, [r3]
 164:	e3a02000 	mov	r2, #0
 168:	e5c32001 	strb	r2, [r3, #1]
 16c:	e3a02000 	mov	r2, #0
 170:	e5c32002 	strb	r2, [r3, #2]
 174:	e3a02000 	mov	r2, #0
 178:	e5c32003 	strb	r2, [r3, #3]
					newAshmNode->ashmem=ashm;
 17c:	e51b3010 	ldr	r3, [fp, #-16]
 180:	e51b2014 	ldr	r2, [fp, #-20]
 184:	e583202c 	str	r2, [r3, #44]	; 0x2c
					newAshmNode->fd=fd;
 188:	e51b3010 	ldr	r3, [fp, #-16]
 18c:	e51b2020 	ldr	r2, [fp, #-32]
 190:	e5832028 	str	r2, [r3, #40]	; 0x28
					strncpy(newAshmNode->name, name, ASHM_NAME_SIZE);
 194:	e51b3010 	ldr	r3, [fp, #-16]
 198:	e1a00003 	mov	r0, r3
 19c:	e51b101c 	ldr	r1, [fp, #-28]
 1a0:	e3a02020 	mov	r2, #32
 1a4:	ebfffffe 	bl	0 <strncpy>
					newAshmNode->next=NULL;
 1a8:	e51b3010 	ldr	r3, [fp, #-16]
 1ac:	e3a02000 	mov	r2, #0
 1b0:	e5832030 	str	r2, [r3, #48]	; 0x30
					newAshmNode->size=size;
 1b4:	e51b3010 	ldr	r3, [fp, #-16]
 1b8:	e51b2034 	ldr	r2, [fp, #-52]	; 0x34
 1bc:	e5832024 	str	r2, [r3, #36]	; 0x24

					if(ashmemChainHead==NULL)
 1c0:	e59f3118 	ldr	r3, [pc, #280]	; 2e0 <Java_com_UltimateImgSpider_WatchdogService_jniGetAshmem+0x2e0>
 1c4:	e7943003 	ldr	r3, [r4, r3]
 1c8:	e5933000 	ldr	r3, [r3]
 1cc:	e3530000 	cmp	r3, #0
 1d0:	1a000003 	bne	1e4 <Java_com_UltimateImgSpider_WatchdogService_jniGetAshmem+0x1e4>
					{
						ashmemChainHead=newAshmNode;
 1d4:	e59f3104 	ldr	r3, [pc, #260]	; 2e0 <Java_com_UltimateImgSpider_WatchdogService_jniGetAshmem+0x2e0>
 1d8:	e7943003 	ldr	r3, [r4, r3]
 1dc:	e51b2010 	ldr	r2, [fp, #-16]
 1e0:	e5832000 	str	r2, [r3]
					}

					if(ashmemChainTail!=NULL)
 1e4:	e59f30f8 	ldr	r3, [pc, #248]	; 2e4 <Java_com_UltimateImgSpider_WatchdogService_jniGetAshmem+0x2e4>
 1e8:	e7943003 	ldr	r3, [r4, r3]
 1ec:	e5933000 	ldr	r3, [r3]
 1f0:	e3530000 	cmp	r3, #0
 1f4:	0a000004 	beq	20c <Java_com_UltimateImgSpider_WatchdogService_jniGetAshmem+0x20c>
					{
						ashmemChainTail->next=newAshmNode;
 1f8:	e59f30e4 	ldr	r3, [pc, #228]	; 2e4 <Java_com_UltimateImgSpider_WatchdogService_jniGetAshmem+0x2e4>
 1fc:	e7943003 	ldr	r3, [r4, r3]
 200:	e5933000 	ldr	r3, [r3]
 204:	e51b2010 	ldr	r2, [fp, #-16]
 208:	e5832030 	str	r2, [r3, #48]	; 0x30
					}
					ashmemChainTail=newAshmNode;
 20c:	e59f30d0 	ldr	r3, [pc, #208]	; 2e4 <Java_com_UltimateImgSpider_WatchdogService_jniGetAshmem+0x2e4>
 210:	e7943003 	ldr	r3, [r4, r3]
 214:	e51b2010 	ldr	r2, [fp, #-16]
 218:	e5832000 	str	r2, [r3]


					LOGI("ashmem mmap %d to watchdog process success!", (u32 )ashm);
 21c:	e51bc014 	ldr	ip, [fp, #-20]
 220:	e3a00004 	mov	r0, #4
 224:	e59f30bc 	ldr	r3, [pc, #188]	; 2e8 <Java_com_UltimateImgSpider_WatchdogService_jniGetAshmem+0x2e8>
 228:	e08f3003 	add	r3, pc, r3
 22c:	e1a01003 	mov	r1, r3
 230:	e59f30b4 	ldr	r3, [pc, #180]	; 2ec <Java_com_UltimateImgSpider_WatchdogService_jniGetAshmem+0x2ec>
 234:	e08f3003 	add	r3, pc, r3
 238:	e1a02003 	mov	r2, r3
 23c:	e1a0300c 	mov	r3, ip
 240:	ebfffffe 	bl	0 <__android_log_print>

					if(strcmp(name, "ashmTest")==0)
 244:	e51b001c 	ldr	r0, [fp, #-28]
 248:	e59f30a0 	ldr	r3, [pc, #160]	; 2f0 <Java_com_UltimateImgSpider_WatchdogService_jniGetAshmem+0x2f0>
 24c:	e08f3003 	add	r3, pc, r3
 250:	e1a01003 	mov	r1, r3
 254:	ebfffffe 	bl	0 <strcmp>
 258:	e1a03000 	mov	r3, r0
 25c:	e3530000 	cmp	r3, #0
 260:	1a000010 	bne	2a8 <Java_com_UltimateImgSpider_WatchdogService_jniGetAshmem+0x2a8>
					{
						for(i=0; i<8; i++)
 264:	e3a03000 	mov	r3, #0
 268:	e50b3024 	str	r3, [fp, #-36]	; 0x24
 26c:	ea00000a 	b	29c <Java_com_UltimateImgSpider_WatchdogService_jniGetAshmem+0x29c>
						{
							ashm->data[i]=i;
 270:	e51b3024 	ldr	r3, [fp, #-36]	; 0x24
 274:	e6ef2073 	uxtb	r2, r3
 278:	e51b0014 	ldr	r0, [fp, #-20]
 27c:	e3a03004 	mov	r3, #4
 280:	e51b1024 	ldr	r1, [fp, #-36]	; 0x24
 284:	e0801001 	add	r1, r0, r1
 288:	e0813003 	add	r3, r1, r3
 28c:	e5c32000 	strb	r2, [r3]

					LOGI("ashmem mmap %d to watchdog process success!", (u32 )ashm);

					if(strcmp(name, "ashmTest")==0)
					{
						for(i=0; i<8; i++)
 290:	e51b3024 	ldr	r3, [fp, #-36]	; 0x24
 294:	e2833001 	add	r3, r3, #1
 298:	e50b3024 	str	r3, [fp, #-36]	; 0x24
 29c:	e51b3024 	ldr	r3, [fp, #-36]	; 0x24
 2a0:	e3530007 	cmp	r3, #7
 2a4:	dafffff1 	ble	270 <Java_com_UltimateImgSpider_WatchdogService_jniGetAshmem+0x270>
				}
			}
		}
	}

	(*env)->ReleaseStringUTFChars(env, jname, name);
 2a8:	e51b3028 	ldr	r3, [fp, #-40]	; 0x28
 2ac:	e5933000 	ldr	r3, [r3]
 2b0:	e59332a8 	ldr	r3, [r3, #680]	; 0x2a8
 2b4:	e51b0028 	ldr	r0, [fp, #-40]	; 0x28
 2b8:	e51b1030 	ldr	r1, [fp, #-48]	; 0x30
 2bc:	e51b201c 	ldr	r2, [fp, #-28]
 2c0:	e12fff33 	blx	r3

	return fd;
 2c4:	e51b3020 	ldr	r3, [fp, #-32]
}
 2c8:	e1a00003 	mov	r0, r3
 2cc:	e24bd008 	sub	sp, fp, #8
 2d0:	e8bd8810 	pop	{r4, fp, pc}
 2d4:	000002ac 	.word	0x000002ac
 2d8:	000001f4 	.word	0x000001f4
 2dc:	00000208 	.word	0x00000208
	...
 2e8:	000000c4 	.word	0x000000c4
 2ec:	00000108 	.word	0x00000108
 2f0:	00000120 	.word	0x00000120

Disassembly of section .text.spiderGetAshmemFromWatchdog:

00000000 <spiderGetAshmemFromWatchdog>:
jclass SpiderServiceClass=NULL;

jmethodID getAshmemFromWatchdogMID=NULL;

void* spiderGetAshmemFromWatchdog(JNIEnv* env, const char *name, int size)
{
   0:	e92d4810 	.word	0xe92d4810
   4:	e28db008 	add	fp, sp, #8
   8:	e24dd02c 	sub	sp, sp, #44	; 0x2c
   c:	e50b0020 	str	r0, [fp, #-32]
  10:	e50b1024 	str	r1, [fp, #-36]	; 0x24
  14:	e50b2028 	str	r2, [fp, #-40]	; 0x28
  18:	e59f4190 	ldr	r4, [pc, #400]	; 1b0 <spiderGetAshmemFromWatchdog+0x1b0>
  1c:	e08f4004 	add	r4, pc, r4
	void *ashmem=NULL;
  20:	e3a03000 	mov	r3, #0
  24:	e50b3018 	str	r3, [fp, #-24]

	LOGI("spiderGetAshmemFromWatchdog name:%s size:%d", name, size);
  28:	e51b3028 	ldr	r3, [fp, #-40]	; 0x28
  2c:	e58d3000 	str	r3, [sp]
  30:	e3a00004 	mov	r0, #4
  34:	e59f3178 	ldr	r3, [pc, #376]	; 1b4 <spiderGetAshmemFromWatchdog+0x1b4>
  38:	e08f3003 	add	r3, pc, r3
  3c:	e1a01003 	mov	r1, r3
  40:	e59f3170 	ldr	r3, [pc, #368]	; 1b8 <spiderGetAshmemFromWatchdog+0x1b8>
  44:	e08f3003 	add	r3, pc, r3
  48:	e1a02003 	mov	r2, r3
  4c:	e51b3024 	ldr	r3, [fp, #-36]	; 0x24
  50:	ebfffffe 	bl	0 <__android_log_print>

	if(getAshmemFromWatchdogMID==NULL)
  54:	e59f3160 	ldr	r3, [pc, #352]	; 1bc <spiderGetAshmemFromWatchdog+0x1bc>
  58:	e7943003 	ldr	r3, [r4, r3]
  5c:	e5933000 	ldr	r3, [r3]
  60:	e3530000 	cmp	r3, #0
  64:	1a000022 	bne	f4 <spiderGetAshmemFromWatchdog+0xf4>
	{
		SpiderServiceClass = (*env)->FindClass(env,
  68:	e51b3020 	ldr	r3, [fp, #-32]
  6c:	e5933000 	ldr	r3, [r3]
  70:	e5932018 	ldr	r2, [r3, #24]
  74:	e51b0020 	ldr	r0, [fp, #-32]
  78:	e59f3140 	ldr	r3, [pc, #320]	; 1c0 <spiderGetAshmemFromWatchdog+0x1c0>
  7c:	e08f3003 	add	r3, pc, r3
  80:	e1a01003 	mov	r1, r3
  84:	e12fff32 	blx	r2
  88:	e1a02000 	mov	r2, r0
  8c:	e59f3130 	ldr	r3, [pc, #304]	; 1c4 <spiderGetAshmemFromWatchdog+0x1c4>
  90:	e7943003 	ldr	r3, [r4, r3]
  94:	e5832000 	str	r2, [r3]
			"com/UltimateImgSpider/SpiderService");
		if (SpiderServiceClass != NULL)
  98:	e59f3124 	ldr	r3, [pc, #292]	; 1c4 <spiderGetAshmemFromWatchdog+0x1c4>
  9c:	e7943003 	ldr	r3, [r4, r3]
  a0:	e5933000 	ldr	r3, [r3]
  a4:	e3530000 	cmp	r3, #0
  a8:	0a000011 	beq	f4 <spiderGetAshmemFromWatchdog+0xf4>
		{
			getAshmemFromWatchdogMID = (*env)->GetMethodID(env, SpiderServiceClass, "getAshmemFromWatchdog",
  ac:	e51b3020 	ldr	r3, [fp, #-32]
  b0:	e5933000 	ldr	r3, [r3]
  b4:	e593c084 	ldr	ip, [r3, #132]	; 0x84
  b8:	e59f3104 	ldr	r3, [pc, #260]	; 1c4 <spiderGetAshmemFromWatchdog+0x1c4>
  bc:	e7943003 	ldr	r3, [r4, r3]
  c0:	e5933000 	ldr	r3, [r3]
  c4:	e51b0020 	ldr	r0, [fp, #-32]
  c8:	e1a01003 	mov	r1, r3
  cc:	e59f30f4 	ldr	r3, [pc, #244]	; 1c8 <spiderGetAshmemFromWatchdog+0x1c8>
  d0:	e08f3003 	add	r3, pc, r3
  d4:	e1a02003 	mov	r2, r3
  d8:	e59f30ec 	ldr	r3, [pc, #236]	; 1cc <spiderGetAshmemFromWatchdog+0x1cc>
  dc:	e08f3003 	add	r3, pc, r3
  e0:	e12fff3c 	blx	ip
  e4:	e1a02000 	mov	r2, r0
  e8:	e59f30cc 	ldr	r3, [pc, #204]	; 1bc <spiderGetAshmemFromWatchdog+0x1bc>
  ec:	e7943003 	ldr	r3, [r4, r3]
  f0:	e5832000 	str	r2, [r3]
					"(Ljava/lang/String;I)I");
		}
	}

	if (getAshmemFromWatchdogMID != NULL)
  f4:	e59f30c0 	ldr	r3, [pc, #192]	; 1bc <spiderGetAshmemFromWatchdog+0x1bc>
  f8:	e7943003 	ldr	r3, [r4, r3]
  fc:	e5933000 	ldr	r3, [r3]
 100:	e3530000 	cmp	r3, #0
 104:	0a000025 	beq	1a0 <spiderGetAshmemFromWatchdog+0x1a0>
	{
		jstring jname=(*env)->NewStringUTF(env, name);
 108:	e51b3020 	ldr	r3, [fp, #-32]
 10c:	e5933000 	ldr	r3, [r3]
 110:	e593329c 	ldr	r3, [r3, #668]	; 0x29c
 114:	e51b0020 	ldr	r0, [fp, #-32]
 118:	e51b1024 	ldr	r1, [fp, #-36]	; 0x24
 11c:	e12fff33 	blx	r3
 120:	e50b0014 	str	r0, [fp, #-20]
		int fd=(*env)->CallIntMethod(env, SpiderServiceInstance, getAshmemFromWatchdogMID, jname, size);
 124:	e51b3020 	ldr	r3, [fp, #-32]
 128:	e5933000 	ldr	r3, [r3]
 12c:	e593c0c4 	ldr	ip, [r3, #196]	; 0xc4
 130:	e59f3098 	ldr	r3, [pc, #152]	; 1d0 <spiderGetAshmemFromWatchdog+0x1d0>
 134:	e7943003 	ldr	r3, [r4, r3]
 138:	e5932000 	ldr	r2, [r3]
 13c:	e59f3078 	ldr	r3, [pc, #120]	; 1bc <spiderGetAshmemFromWatchdog+0x1bc>
 140:	e7943003 	ldr	r3, [r4, r3]
 144:	e5933000 	ldr	r3, [r3]
 148:	e51b1028 	ldr	r1, [fp, #-40]	; 0x28
 14c:	e58d1000 	str	r1, [sp]
 150:	e51b0020 	ldr	r0, [fp, #-32]
 154:	e1a01002 	mov	r1, r2
 158:	e1a02003 	mov	r2, r3
 15c:	e51b3014 	ldr	r3, [fp, #-20]
 160:	e12fff3c 	blx	ip
 164:	e50b0010 	str	r0, [fp, #-16]
		if(fd>=0)
 168:	e51b3010 	ldr	r3, [fp, #-16]
 16c:	e3530000 	cmp	r3, #0
 170:	ba00000a 	blt	1a0 <spiderGetAshmemFromWatchdog+0x1a0>
		{
			ashmem=mmap(NULL, size, PROT_READ | PROT_WRITE,
 174:	e51b3028 	ldr	r3, [fp, #-40]	; 0x28
 178:	e51b2010 	ldr	r2, [fp, #-16]
 17c:	e58d2000 	str	r2, [sp]
 180:	e3a02000 	mov	r2, #0
 184:	e58d2004 	str	r2, [sp, #4]
 188:	e3a00000 	mov	r0, #0
 18c:	e1a01003 	mov	r1, r3
 190:	e3a02003 	mov	r2, #3
 194:	e3a03001 	mov	r3, #1
 198:	ebfffffe 	bl	0 <mmap>
 19c:	e50b0018 	str	r0, [fp, #-24]
						MAP_SHARED, fd, 0);
		}

	}
	return ashmem;
 1a0:	e51b3018 	ldr	r3, [fp, #-24]
}
 1a4:	e1a00003 	mov	r0, r3
 1a8:	e24bd008 	sub	sp, fp, #8
 1ac:	e8bd8810 	pop	{r4, fp, pc}
 1b0:	0000018c 	.word	0x0000018c
 1b4:	00000180 	.word	0x00000180
 1b8:	000001fc 	.word	0x000001fc
 1bc:	00000000 	.word	0x00000000
 1c0:	000001f8 	.word	0x000001f8
 1c4:	00000000 	.word	0x00000000
 1c8:	000001d0 	.word	0x000001d0
 1cc:	000001e0 	.word	0x000001e0
 1d0:	00000000 	.word	0x00000000

Disassembly of section .text.ashmemTest:

00000000 <ashmemTest>:




void ashmemTest(JNIEnv* env)
{
   0:	e92d4800 	.word	0xe92d4800
   4:	e28db004 	add	fp, sp, #4
   8:	e24dd010 	sub	sp, sp, #16
   c:	e50b0010 	str	r0, [fp, #-16]
	t_ashmBlock *ashm=spiderGetAshmemFromWatchdog(env, "ashmTest", 32);
  10:	e51b0010 	ldr	r0, [fp, #-16]
  14:	e59f30e8 	ldr	r3, [pc, #232]	; 104 <ashmemTest+0x104>
  18:	e08f3003 	add	r3, pc, r3
  1c:	e1a01003 	mov	r1, r3
  20:	e3a02020 	mov	r2, #32
  24:	ebfffffe 	bl	0 <ashmemTest>
  28:	e50b0008 	str	r0, [fp, #-8]

	if(ashm!=NULL)
  2c:	e51b3008 	ldr	r3, [fp, #-8]
  30:	e3530000 	cmp	r3, #0
  34:	0a000030 	beq	fc <ashmemTest+0xfc>
	{
		u8 i;
		for(i=0; i<8; i++)
  38:	e3a03000 	mov	r3, #0
  3c:	e54b3009 	strb	r3, [fp, #-9]
  40:	ea000012 	b	90 <ashmemTest+0x90>
		{
			LOGI("%d", ashm->data[i]);
  44:	e55b2009 	ldrb	r2, [fp, #-9]
  48:	e51b1008 	ldr	r1, [fp, #-8]
  4c:	e3a03004 	mov	r3, #4
  50:	e0812002 	add	r2, r1, r2
  54:	e0823003 	add	r3, r2, r3
  58:	e5d33000 	ldrb	r3, [r3]
  5c:	e1a0c003 	mov	ip, r3
  60:	e3a00004 	mov	r0, #4
  64:	e59f309c 	ldr	r3, [pc, #156]	; 108 <ashmemTest+0x108>
  68:	e08f3003 	add	r3, pc, r3
  6c:	e1a01003 	mov	r1, r3
  70:	e59f3094 	ldr	r3, [pc, #148]	; 10c <ashmemTest+0x10c>
  74:	e08f3003 	add	r3, pc, r3
  78:	e1a02003 	mov	r2, r3
  7c:	e1a0300c 	mov	r3, ip
  80:	ebfffffe 	bl	0 <__android_log_print>
	t_ashmBlock *ashm=spiderGetAshmemFromWatchdog(env, "ashmTest", 32);

	if(ashm!=NULL)
	{
		u8 i;
		for(i=0; i<8; i++)
  84:	e55b3009 	ldrb	r3, [fp, #-9]
  88:	e2833001 	add	r3, r3, #1
  8c:	e54b3009 	strb	r3, [fp, #-9]
  90:	e55b3009 	ldrb	r3, [fp, #-9]
  94:	e3530007 	cmp	r3, #7
  98:	9affffe9 	bls	44 <ashmemTest+0x44>
		{
			LOGI("%d", ashm->data[i]);
		}
		if(ashm->ashmStat==ASHM_EXIST)
  9c:	e51b3008 	ldr	r3, [fp, #-8]
  a0:	e5d32000 	ldrb	r2, [r3]
  a4:	e5d31001 	ldrb	r1, [r3, #1]
  a8:	e1a01401 	lsl	r1, r1, #8
  ac:	e1812002 	orr	r2, r1, r2
  b0:	e5d31002 	ldrb	r1, [r3, #2]
  b4:	e1a01801 	lsl	r1, r1, #16
  b8:	e1812002 	orr	r2, r1, r2
  bc:	e5d33003 	ldrb	r3, [r3, #3]
  c0:	e1a03c03 	lsl	r3, r3, #24
  c4:	e1833002 	orr	r3, r3, r2
  c8:	e1a02003 	mov	r2, r3
  cc:	e3053678 	movw	r3, #22136	; 0x5678
  d0:	e3413234 	movt	r3, #4660	; 0x1234
  d4:	e1520003 	cmp	r2, r3
  d8:	1a000007 	bne	fc <ashmemTest+0xfc>
		{
			LOGI("ashmem already exist");
  dc:	e3a00004 	mov	r0, #4
  e0:	e59f3028 	ldr	r3, [pc, #40]	; 110 <ashmemTest+0x110>
  e4:	e08f3003 	add	r3, pc, r3
  e8:	e1a01003 	mov	r1, r3
  ec:	e59f3020 	ldr	r3, [pc, #32]	; 114 <ashmemTest+0x114>
  f0:	e08f3003 	add	r3, pc, r3
  f4:	e1a02003 	mov	r2, r3
  f8:	ebfffffe 	bl	0 <__android_log_print>
		}
	}
}
  fc:	e24bd004 	sub	sp, fp, #4
 100:	e8bd8800 	pop	{fp, pc}
 104:	00000168 	.word	0x00000168
 108:	000000a4 	.word	0x000000a4
 10c:	000001a0 	.word	0x000001a0
 110:	00000030 	.word	0x00000030
 114:	00000130 	.word	0x00000130

Disassembly of section .text.Java_com_UltimateImgSpider_SpiderService_stringFromJNI:

00000000 <Java_com_UltimateImgSpider_SpiderService_stringFromJNI>:



jstring Java_com_UltimateImgSpider_SpiderService_stringFromJNI(JNIEnv* env,
		jobject thiz, jstring jSrcStr)
{
   0:	e92d4810 	.word	0xe92d4810
   4:	e28db008 	add	fp, sp, #8
   8:	e24dd01c 	sub	sp, sp, #28
   c:	e50b0018 	str	r0, [fp, #-24]
  10:	e50b101c 	str	r1, [fp, #-28]
  14:	e50b2020 	str	r2, [fp, #-32]
  18:	e59f40d0 	ldr	r4, [pc, #208]	; f0 <Java_com_UltimateImgSpider_SpiderService_stringFromJNI+0xf0>
  1c:	e08f4004 	add	r4, pc, r4
	int i;
	const u8 *srcStr = (*env)->GetStringUTFChars(env, jSrcStr, NULL);
  20:	e51b3018 	ldr	r3, [fp, #-24]
  24:	e5933000 	ldr	r3, [r3]
  28:	e59332a4 	ldr	r3, [r3, #676]	; 0x2a4
  2c:	e51b0018 	ldr	r0, [fp, #-24]
  30:	e51b1020 	ldr	r1, [fp, #-32]
  34:	e3a02000 	mov	r2, #0
  38:	e12fff33 	blx	r3
  3c:	e50b0010 	str	r0, [fp, #-16]
	LOGI("stringFromJNI %s", srcStr);
  40:	e3a00004 	mov	r0, #4
  44:	e59f30a8 	ldr	r3, [pc, #168]	; f4 <Java_com_UltimateImgSpider_SpiderService_stringFromJNI+0xf4>
  48:	e08f3003 	add	r3, pc, r3
  4c:	e1a01003 	mov	r1, r3
  50:	e59f30a0 	ldr	r3, [pc, #160]	; f8 <Java_com_UltimateImgSpider_SpiderService_stringFromJNI+0xf8>
  54:	e08f3003 	add	r3, pc, r3
  58:	e1a02003 	mov	r2, r3
  5c:	e51b3010 	ldr	r3, [fp, #-16]
  60:	ebfffffe 	bl	0 <__android_log_print>

	SpiderServiceInstance=thiz;
  64:	e59f3090 	ldr	r3, [pc, #144]	; fc <Java_com_UltimateImgSpider_SpiderService_stringFromJNI+0xfc>
  68:	e7943003 	ldr	r3, [r4, r3]
  6c:	e51b201c 	ldr	r2, [fp, #-28]
  70:	e5832000 	str	r2, [r3]

	ashmemTest(env);
  74:	e51b0018 	ldr	r0, [fp, #-24]
  78:	ebfffffe 	bl	0 <Java_com_UltimateImgSpider_SpiderService_stringFromJNI>

	if((*env)->ExceptionOccurred(env)) {
  7c:	e51b3018 	ldr	r3, [fp, #-24]
  80:	e5933000 	ldr	r3, [r3]
  84:	e593303c 	ldr	r3, [r3, #60]	; 0x3c
  88:	e51b0018 	ldr	r0, [fp, #-24]
  8c:	e12fff33 	blx	r3
  90:	e1a03000 	mov	r3, r0
  94:	e3530000 	cmp	r3, #0
  98:	0a000001 	beq	a4 <Java_com_UltimateImgSpider_SpiderService_stringFromJNI+0xa4>
	   return NULL;
  9c:	e3a03000 	mov	r3, #0
  a0:	ea00000f 	b	e4 <Java_com_UltimateImgSpider_SpiderService_stringFromJNI+0xe4>
	}

	(*env)->ReleaseStringUTFChars(env, jSrcStr, srcStr);
  a4:	e51b3018 	ldr	r3, [fp, #-24]
  a8:	e5933000 	ldr	r3, [r3]
  ac:	e59332a8 	ldr	r3, [r3, #680]	; 0x2a8
  b0:	e51b0018 	ldr	r0, [fp, #-24]
  b4:	e51b1020 	ldr	r1, [fp, #-32]
  b8:	e51b2010 	ldr	r2, [fp, #-16]
  bc:	e12fff33 	blx	r3
	return (*env)->NewStringUTF(env, "test jni !");
  c0:	e51b3018 	ldr	r3, [fp, #-24]
  c4:	e5933000 	ldr	r3, [r3]
  c8:	e593229c 	ldr	r2, [r3, #668]	; 0x29c
  cc:	e51b0018 	ldr	r0, [fp, #-24]
  d0:	e59f3028 	ldr	r3, [pc, #40]	; 100 <Java_com_UltimateImgSpider_SpiderService_stringFromJNI+0x100>
  d4:	e08f3003 	add	r3, pc, r3
  d8:	e1a01003 	mov	r1, r3
  dc:	e12fff32 	blx	r2
  e0:	e1a03000 	mov	r3, r0
}
  e4:	e1a00003 	mov	r0, r3
  e8:	e24bd008 	sub	sp, fp, #8
  ec:	e8bd8810 	pop	{r4, fp, pc}
  f0:	000000cc 	.word	0x000000cc
  f4:	000000b0 	.word	0x000000b0
  f8:	000001c8 	.word	0x000001c8
  fc:	00000000 	.word	0x00000000
 100:	00000164 	.word	0x00000164

Disassembly of section .text.nodeAddrAbsToRelative:

00000000 <nodeAddrAbsToRelative>:

t_urlPool *firstUrlPool = NULL;


void nodeAddrAbsToRelative(urlNode *node, urlNodeRelativeAddr *RelativeAddr)
{
   0:	e52db004 	push	{fp}		; (str fp, [sp, #-4]!)
   4:	e28db000 	add	fp, sp, #0
   8:	e24dd01c 	sub	sp, sp, #28
   c:	e50b0018 	str	r0, [fp, #-24]
  10:	e50b101c 	str	r1, [fp, #-28]
  14:	e59f31a4 	ldr	r3, [pc, #420]	; 1c0 <nodeAddrAbsToRelative+0x1c0>
  18:	e08f3003 	add	r3, pc, r3
	if(node!=NULL)
  1c:	e51b2018 	ldr	r2, [fp, #-24]
  20:	e3520000 	cmp	r2, #0
  24:	0a000057 	beq	188 <nodeAddrAbsToRelative+0x188>
	{
		t_urlPool *pool=firstUrlPool;
  28:	e59f2194 	ldr	r2, [pc, #404]	; 1c4 <nodeAddrAbsToRelative+0x1c4>
  2c:	e7933002 	ldr	r3, [r3, r2]
  30:	e5933000 	ldr	r3, [r3]
  34:	e50b3014 	str	r3, [fp, #-20]
		u32 i=0;
  38:	e3a03000 	mov	r3, #0
  3c:	e50b3010 	str	r3, [fp, #-16]

		while(pool!=NULL)
  40:	ea00004c 	b	178 <nodeAddrAbsToRelative+0x178>
		{
			s64 ofs=(u32)node-(u32)pool;
  44:	e51b2018 	ldr	r2, [fp, #-24]
  48:	e51b3014 	ldr	r3, [fp, #-20]
  4c:	e0631002 	rsb	r1, r3, r2
  50:	e1a02001 	mov	r2, r1
  54:	e3a03000 	mov	r3, #0
  58:	e14b20fc 	strd	r2, [fp, #-12]
			if(ofs>=0&&ofs<sizeof(t_urlPool))
  5c:	e14b20dc 	ldrd	r2, [fp, #-12]
  60:	e3520000 	cmp	r2, #0
  64:	e2d31000 	sbcs	r1, r3, #0
  68:	ba00002b 	blt	11c <nodeAddrAbsToRelative+0x11c>
  6c:	e14b20dc 	ldrd	r2, [fp, #-12]
  70:	e28f1d05 	add	r1, pc, #320	; 0x140
  74:	e1c100d0 	ldrd	r0, [r1]
  78:	e1500002 	cmp	r0, r2
  7c:	e0d1c003 	sbcs	ip, r1, r3
  80:	ba000025 	blt	11c <nodeAddrAbsToRelative+0x11c>
			{
				RelativeAddr->poolPtr=i;
  84:	e51b301c 	ldr	r3, [fp, #-28]
  88:	e55b2010 	ldrb	r2, [fp, #-16]
  8c:	e3a01000 	mov	r1, #0
  90:	e1812002 	orr	r2, r1, r2
  94:	e5c32000 	strb	r2, [r3]
  98:	e55b200f 	ldrb	r2, [fp, #-15]
  9c:	e3a01000 	mov	r1, #0
  a0:	e1812002 	orr	r2, r1, r2
  a4:	e5c32001 	strb	r2, [r3, #1]
  a8:	e55b200e 	ldrb	r2, [fp, #-14]
  ac:	e3a01000 	mov	r1, #0
  b0:	e1812002 	orr	r2, r1, r2
  b4:	e5c32002 	strb	r2, [r3, #2]
  b8:	e55b200d 	ldrb	r2, [fp, #-13]
  bc:	e3a01000 	mov	r1, #0
  c0:	e1812002 	orr	r2, r1, r2
  c4:	e5c32003 	strb	r2, [r3, #3]
				RelativeAddr->offset=ofs;
  c8:	e51b200c 	ldr	r2, [fp, #-12]
  cc:	e51b301c 	ldr	r3, [fp, #-28]
  d0:	e6ef1072 	uxtb	r1, r2
  d4:	e3a00000 	mov	r0, #0
  d8:	e1801001 	orr	r1, r0, r1
  dc:	e5c31004 	strb	r1, [r3, #4]
  e0:	e1a01422 	lsr	r1, r2, #8
  e4:	e6ef1071 	uxtb	r1, r1
  e8:	e3a00000 	mov	r0, #0
  ec:	e1801001 	orr	r1, r0, r1
  f0:	e5c31005 	strb	r1, [r3, #5]
  f4:	e1a01822 	lsr	r1, r2, #16
  f8:	e6ef1071 	uxtb	r1, r1
  fc:	e3a00000 	mov	r0, #0
 100:	e1801001 	orr	r1, r0, r1
 104:	e5c31006 	strb	r1, [r3, #6]
 108:	e1a02c22 	lsr	r2, r2, #24
 10c:	e3a01000 	mov	r1, #0
 110:	e1812002 	orr	r2, r1, r2
 114:	e5c32007 	strb	r2, [r3, #7]
				return;
 118:	ea000023 	b	1ac <nodeAddrAbsToRelative+0x1ac>
			}
			pool=pool->next;
 11c:	e51b3014 	ldr	r3, [fp, #-20]
 120:	e30f2ff8 	movw	r2, #65528	; 0xfff8
 124:	e340200f 	movt	r2, #15
 128:	e7d31002 	ldrb	r1, [r3, r2]
 12c:	e30f2ff9 	movw	r2, #65529	; 0xfff9
 130:	e340200f 	movt	r2, #15
 134:	e7d32002 	ldrb	r2, [r3, r2]
 138:	e1a02402 	lsl	r2, r2, #8
 13c:	e1821001 	orr	r1, r2, r1
 140:	e30f2ffa 	movw	r2, #65530	; 0xfffa
 144:	e340200f 	movt	r2, #15
 148:	e7d32002 	ldrb	r2, [r3, r2]
 14c:	e1a02802 	lsl	r2, r2, #16
 150:	e1821001 	orr	r1, r2, r1
 154:	e30f2ffb 	movw	r2, #65531	; 0xfffb
 158:	e340200f 	movt	r2, #15
 15c:	e7d33002 	ldrb	r3, [r3, r2]
 160:	e1a03c03 	lsl	r3, r3, #24
 164:	e1833001 	orr	r3, r3, r1
 168:	e50b3014 	str	r3, [fp, #-20]
			i++;
 16c:	e51b3010 	ldr	r3, [fp, #-16]
 170:	e2833001 	add	r3, r3, #1
 174:	e50b3010 	str	r3, [fp, #-16]
	if(node!=NULL)
	{
		t_urlPool *pool=firstUrlPool;
		u32 i=0;

		while(pool!=NULL)
 178:	e51b3014 	ldr	r3, [fp, #-20]
 17c:	e3530000 	cmp	r3, #0
 180:	1affffaf 	bne	44 <nodeAddrAbsToRelative+0x44>
 184:	ea000008 	b	1ac <nodeAddrAbsToRelative+0x1ac>
			i++;
		}
	}
	else
	{
		RelativeAddr->poolPtr=POOL_PTR_INVALID;
 188:	e51b301c 	ldr	r3, [fp, #-28]
 18c:	e3e02000 	mvn	r2, #0
 190:	e5c32000 	strb	r2, [r3]
 194:	e3e02000 	mvn	r2, #0
 198:	e5c32001 	strb	r2, [r3, #1]
 19c:	e3e02000 	mvn	r2, #0
 1a0:	e5c32002 	strb	r2, [r3, #2]
 1a4:	e3e02000 	mvn	r2, #0
 1a8:	e5c32003 	strb	r2, [r3, #3]
	}
}
 1ac:	e28bd000 	add	sp, fp, #0
 1b0:	e8bd0800 	pop	{fp}
 1b4:	e12fff1e 	bx	lr
 1b8:	000ffffb 	.word	0x000ffffb
 1bc:	00000000 	.word	0x00000000
 1c0:	000001a0 	.word	0x000001a0
 1c4:	00000000 	.word	0x00000000

Disassembly of section .text.nodeAddrRelativeToAbs:

00000000 <nodeAddrRelativeToAbs>:

urlNode *nodeAddrRelativeToAbs(urlNodeRelativeAddr *RelativeAddr)
{
   0:	e52db004 	push	{fp}		; (str fp, [sp, #-4]!)
   4:	e28db000 	add	fp, sp, #0
   8:	e24dd014 	sub	sp, sp, #20
   c:	e50b0010 	str	r0, [fp, #-16]
  10:	e59f31e0 	ldr	r3, [pc, #480]	; 1f8 <nodeAddrRelativeToAbs+0x1f8>
  14:	e08f3003 	add	r3, pc, r3
	t_urlPool *pool=firstUrlPool;
  18:	e59f21dc 	ldr	r2, [pc, #476]	; 1fc <nodeAddrRelativeToAbs+0x1fc>
  1c:	e7933002 	ldr	r3, [r3, r2]
  20:	e5933000 	ldr	r3, [r3]
  24:	e50b300c 	str	r3, [fp, #-12]
	u32 i=0;
  28:	e3a03000 	mov	r3, #0
  2c:	e50b3008 	str	r3, [fp, #-8]

	if(pool!=NULL)
  30:	e51b300c 	ldr	r3, [fp, #-12]
  34:	e3530000 	cmp	r3, #0
  38:	0a000069 	beq	1e4 <nodeAddrRelativeToAbs+0x1e4>
	{
		while(pool->next!=NULL&&i<RelativeAddr->poolPtr)
  3c:	ea000016 	b	9c <nodeAddrRelativeToAbs+0x9c>
		{
			pool=pool->next;
  40:	e51b300c 	ldr	r3, [fp, #-12]
  44:	e30f2ff8 	movw	r2, #65528	; 0xfff8
  48:	e340200f 	movt	r2, #15
  4c:	e7d31002 	ldrb	r1, [r3, r2]
  50:	e30f2ff9 	movw	r2, #65529	; 0xfff9
  54:	e340200f 	movt	r2, #15
  58:	e7d32002 	ldrb	r2, [r3, r2]
  5c:	e1a02402 	lsl	r2, r2, #8
  60:	e1821001 	orr	r1, r2, r1
  64:	e30f2ffa 	movw	r2, #65530	; 0xfffa
  68:	e340200f 	movt	r2, #15
  6c:	e7d32002 	ldrb	r2, [r3, r2]
  70:	e1a02802 	lsl	r2, r2, #16
  74:	e1821001 	orr	r1, r2, r1
  78:	e30f2ffb 	movw	r2, #65531	; 0xfffb
  7c:	e340200f 	movt	r2, #15
  80:	e7d33002 	ldrb	r3, [r3, r2]
  84:	e1a03c03 	lsl	r3, r3, #24
  88:	e1833001 	orr	r3, r3, r1
  8c:	e50b300c 	str	r3, [fp, #-12]
			i++;
  90:	e51b3008 	ldr	r3, [fp, #-8]
  94:	e2833001 	add	r3, r3, #1
  98:	e50b3008 	str	r3, [fp, #-8]
	t_urlPool *pool=firstUrlPool;
	u32 i=0;

	if(pool!=NULL)
	{
		while(pool->next!=NULL&&i<RelativeAddr->poolPtr)
  9c:	e51b300c 	ldr	r3, [fp, #-12]
  a0:	e30f2ff8 	movw	r2, #65528	; 0xfff8
  a4:	e340200f 	movt	r2, #15
  a8:	e7d31002 	ldrb	r1, [r3, r2]
  ac:	e30f2ff9 	movw	r2, #65529	; 0xfff9
  b0:	e340200f 	movt	r2, #15
  b4:	e7d32002 	ldrb	r2, [r3, r2]
  b8:	e1a02402 	lsl	r2, r2, #8
  bc:	e1821001 	orr	r1, r2, r1
  c0:	e30f2ffa 	movw	r2, #65530	; 0xfffa
  c4:	e340200f 	movt	r2, #15
  c8:	e7d32002 	ldrb	r2, [r3, r2]
  cc:	e1a02802 	lsl	r2, r2, #16
  d0:	e1821001 	orr	r1, r2, r1
  d4:	e30f2ffb 	movw	r2, #65531	; 0xfffb
  d8:	e340200f 	movt	r2, #15
  dc:	e7d33002 	ldrb	r3, [r3, r2]
  e0:	e1a03c03 	lsl	r3, r3, #24
  e4:	e1833001 	orr	r3, r3, r1
  e8:	e3530000 	cmp	r3, #0
  ec:	0a00000e 	beq	12c <nodeAddrRelativeToAbs+0x12c>
  f0:	e51b3010 	ldr	r3, [fp, #-16]
  f4:	e5d32000 	ldrb	r2, [r3]
  f8:	e5d31001 	ldrb	r1, [r3, #1]
  fc:	e1a01401 	lsl	r1, r1, #8
 100:	e1812002 	orr	r2, r1, r2
 104:	e5d31002 	ldrb	r1, [r3, #2]
 108:	e1a01801 	lsl	r1, r1, #16
 10c:	e1812002 	orr	r2, r1, r2
 110:	e5d33003 	ldrb	r3, [r3, #3]
 114:	e1a03c03 	lsl	r3, r3, #24
 118:	e1833002 	orr	r3, r3, r2
 11c:	e1a02003 	mov	r2, r3
 120:	e51b3008 	ldr	r3, [fp, #-8]
 124:	e1520003 	cmp	r2, r3
 128:	8affffc4 	bhi	40 <nodeAddrRelativeToAbs+0x40>
		{
			pool=pool->next;
			i++;
		}

		if(i==RelativeAddr->poolPtr&&RelativeAddr->offset<sizeof(t_urlPool))
 12c:	e51b3010 	ldr	r3, [fp, #-16]
 130:	e5d32000 	ldrb	r2, [r3]
 134:	e5d31001 	ldrb	r1, [r3, #1]
 138:	e1a01401 	lsl	r1, r1, #8
 13c:	e1812002 	orr	r2, r1, r2
 140:	e5d31002 	ldrb	r1, [r3, #2]
 144:	e1a01801 	lsl	r1, r1, #16
 148:	e1812002 	orr	r2, r1, r2
 14c:	e5d33003 	ldrb	r3, [r3, #3]
 150:	e1a03c03 	lsl	r3, r3, #24
 154:	e1833002 	orr	r3, r3, r2
 158:	e1a02003 	mov	r2, r3
 15c:	e51b3008 	ldr	r3, [fp, #-8]
 160:	e1520003 	cmp	r2, r3
 164:	1a00001e 	bne	1e4 <nodeAddrRelativeToAbs+0x1e4>
 168:	e51b3010 	ldr	r3, [fp, #-16]
 16c:	e5d32004 	ldrb	r2, [r3, #4]
 170:	e5d31005 	ldrb	r1, [r3, #5]
 174:	e1a01401 	lsl	r1, r1, #8
 178:	e1812002 	orr	r2, r1, r2
 17c:	e5d31006 	ldrb	r1, [r3, #6]
 180:	e1a01801 	lsl	r1, r1, #16
 184:	e1812002 	orr	r2, r1, r2
 188:	e5d33007 	ldrb	r3, [r3, #7]
 18c:	e1a03c03 	lsl	r3, r3, #24
 190:	e1833002 	orr	r3, r3, r2
 194:	e1a02003 	mov	r2, r3
 198:	e30f3ffb 	movw	r3, #65531	; 0xfffb
 19c:	e340300f 	movt	r3, #15
 1a0:	e1520003 	cmp	r2, r3
 1a4:	8a00000e 	bhi	1e4 <nodeAddrRelativeToAbs+0x1e4>
		{
			return (urlNode *)(((u32)pool)+RelativeAddr->offset);
 1a8:	e51b3010 	ldr	r3, [fp, #-16]
 1ac:	e5d32004 	ldrb	r2, [r3, #4]
 1b0:	e5d31005 	ldrb	r1, [r3, #5]
 1b4:	e1a01401 	lsl	r1, r1, #8
 1b8:	e1812002 	orr	r2, r1, r2
 1bc:	e5d31006 	ldrb	r1, [r3, #6]
 1c0:	e1a01801 	lsl	r1, r1, #16
 1c4:	e1812002 	orr	r2, r1, r2
 1c8:	e5d33007 	ldrb	r3, [r3, #7]
 1cc:	e1a03c03 	lsl	r3, r3, #24
 1d0:	e1833002 	orr	r3, r3, r2
 1d4:	e1a02003 	mov	r2, r3
 1d8:	e51b300c 	ldr	r3, [fp, #-12]
 1dc:	e0823003 	add	r3, r2, r3
 1e0:	ea000000 	b	1e8 <nodeAddrRelativeToAbs+0x1e8>
		}
	}

	return NULL;
 1e4:	e3a03000 	mov	r3, #0
}
 1e8:	e1a00003 	mov	r0, r3
 1ec:	e28bd000 	add	sp, fp, #0
 1f0:	e8bd0800 	pop	{fp}
 1f4:	e12fff1e 	bx	lr
 1f8:	000001dc 	.word	0x000001dc
 1fc:	00000000 	.word	0x00000000

Disassembly of section .text.isRelativeAddrEqu:

00000000 <isRelativeAddrEqu>:

bool isRelativeAddrEqu(urlNodeRelativeAddr *src, urlNodeRelativeAddr *dst)
{
   0:	e52db004 	push	{fp}		; (str fp, [sp, #-4]!)
   4:	e28db000 	add	fp, sp, #0
   8:	e24dd00c 	sub	sp, sp, #12
   c:	e50b0008 	str	r0, [fp, #-8]
  10:	e50b100c 	str	r1, [fp, #-12]
	return src->poolPtr==dst->poolPtr && src->offset==dst->offset;
  14:	e51b3008 	ldr	r3, [fp, #-8]
  18:	e5d32000 	ldrb	r2, [r3]
  1c:	e5d31001 	ldrb	r1, [r3, #1]
  20:	e1a01401 	lsl	r1, r1, #8
  24:	e1812002 	orr	r2, r1, r2
  28:	e5d31002 	ldrb	r1, [r3, #2]
  2c:	e1a01801 	lsl	r1, r1, #16
  30:	e1812002 	orr	r2, r1, r2
  34:	e5d33003 	ldrb	r3, [r3, #3]
  38:	e1a03c03 	lsl	r3, r3, #24
  3c:	e1833002 	orr	r3, r3, r2
  40:	e1a02003 	mov	r2, r3
  44:	e51b300c 	ldr	r3, [fp, #-12]
  48:	e5d31000 	ldrb	r1, [r3]
  4c:	e5d30001 	ldrb	r0, [r3, #1]
  50:	e1a00400 	lsl	r0, r0, #8
  54:	e1801001 	orr	r1, r0, r1
  58:	e5d30002 	ldrb	r0, [r3, #2]
  5c:	e1a00800 	lsl	r0, r0, #16
  60:	e1801001 	orr	r1, r0, r1
  64:	e5d33003 	ldrb	r3, [r3, #3]
  68:	e1a03c03 	lsl	r3, r3, #24
  6c:	e1833001 	orr	r3, r3, r1
  70:	e1520003 	cmp	r2, r3
  74:	1a00001a 	bne	e4 <isRelativeAddrEqu+0xe4>
  78:	e51b3008 	ldr	r3, [fp, #-8]
  7c:	e5d32004 	ldrb	r2, [r3, #4]
  80:	e5d31005 	ldrb	r1, [r3, #5]
  84:	e1a01401 	lsl	r1, r1, #8
  88:	e1812002 	orr	r2, r1, r2
  8c:	e5d31006 	ldrb	r1, [r3, #6]
  90:	e1a01801 	lsl	r1, r1, #16
  94:	e1812002 	orr	r2, r1, r2
  98:	e5d33007 	ldrb	r3, [r3, #7]
  9c:	e1a03c03 	lsl	r3, r3, #24
  a0:	e1833002 	orr	r3, r3, r2
  a4:	e1a02003 	mov	r2, r3
  a8:	e51b300c 	ldr	r3, [fp, #-12]
  ac:	e5d31004 	ldrb	r1, [r3, #4]
  b0:	e5d30005 	ldrb	r0, [r3, #5]
  b4:	e1a00400 	lsl	r0, r0, #8
  b8:	e1801001 	orr	r1, r0, r1
  bc:	e5d30006 	ldrb	r0, [r3, #6]
  c0:	e1a00800 	lsl	r0, r0, #16
  c4:	e1801001 	orr	r1, r0, r1
  c8:	e5d33007 	ldrb	r3, [r3, #7]
  cc:	e1a03c03 	lsl	r3, r3, #24
  d0:	e1833001 	orr	r3, r3, r1
  d4:	e1520003 	cmp	r2, r3
  d8:	1a000001 	bne	e4 <isRelativeAddrEqu+0xe4>
  dc:	e3a03001 	mov	r3, #1
  e0:	ea000000 	b	e8 <isRelativeAddrEqu+0xe8>
  e4:	e3a03000 	mov	r3, #0
  e8:	e6ef3073 	uxtb	r3, r3
}
  ec:	e1a00003 	mov	r0, r3
  f0:	e28bd000 	add	sp, fp, #0
  f4:	e8bd0800 	pop	{fp}
  f8:	e12fff1e 	bx	lr

Disassembly of section .text.urlTreeLeftRotate:

00000000 <urlTreeLeftRotate>:
   0:	e92d4800 	push	{fp, lr}
   4:	e28db004 	add	fp, sp, #4
   8:	e24dd020 	sub	sp, sp, #32
   c:	e50b0020 	str	r0, [fp, #-32]
  10:	e50b1024 	str	r1, [fp, #-36]	; 0x24
  14:	e51b3024 	ldr	r3, [fp, #-36]	; 0x24
  18:	e24b1014 	sub	r1, fp, #20
  1c:	e283201c 	add	r2, r3, #28
  20:	e3a03008 	mov	r3, #8
  24:	e1a00001 	mov	r0, r1
  28:	e1a01002 	mov	r1, r2
  2c:	e1a02003 	mov	r2, r3
  30:	ebfffffe 	bl	0 <memcpy>
  34:	e24b3014 	sub	r3, fp, #20
  38:	e1a00003 	mov	r0, r3
  3c:	ebfffffe 	bl	0 <urlTreeLeftRotate>
  40:	e50b0018 	str	r0, [fp, #-24]
  44:	e24b300c 	sub	r3, fp, #12
  48:	e51b0024 	ldr	r0, [fp, #-36]	; 0x24
  4c:	e1a01003 	mov	r1, r3
  50:	ebfffffe 	bl	0 <urlTreeLeftRotate>
  54:	e51b2024 	ldr	r2, [fp, #-36]	; 0x24
  58:	e51b3018 	ldr	r3, [fp, #-24]
  5c:	e282101c 	add	r1, r2, #28
  60:	e2832014 	add	r2, r3, #20
  64:	e3a03008 	mov	r3, #8
  68:	e1a00001 	mov	r0, r1
  6c:	e1a01002 	mov	r1, r2
  70:	e1a02003 	mov	r2, r3
  74:	ebfffffe 	bl	0 <memcpy>
  78:	e51b3018 	ldr	r3, [fp, #-24]
  7c:	e5d32014 	ldrb	r2, [r3, #20]
  80:	e5d31015 	ldrb	r1, [r3, #21]
  84:	e1a01401 	lsl	r1, r1, #8
  88:	e1812002 	orr	r2, r1, r2
  8c:	e5d31016 	ldrb	r1, [r3, #22]
  90:	e1a01801 	lsl	r1, r1, #16
  94:	e1812002 	orr	r2, r1, r2
  98:	e5d33017 	ldrb	r3, [r3, #23]
  9c:	e1a03c03 	lsl	r3, r3, #24
  a0:	e1833002 	orr	r3, r3, r2
  a4:	e3730001 	cmn	r3, #1
  a8:	0a00000b 	beq	dc <urlTreeLeftRotate+0xdc>
  ac:	e51b3018 	ldr	r3, [fp, #-24]
  b0:	e2833014 	add	r3, r3, #20
  b4:	e1a00003 	mov	r0, r3
  b8:	ebfffffe 	bl	0 <urlTreeLeftRotate>
  bc:	e1a03000 	mov	r3, r0
  c0:	e2831024 	add	r1, r3, #36	; 0x24
  c4:	e24b200c 	sub	r2, fp, #12
  c8:	e3a03008 	mov	r3, #8
  cc:	e1a00001 	mov	r0, r1
  d0:	e1a01002 	mov	r1, r2
  d4:	e1a02003 	mov	r2, r3
  d8:	ebfffffe 	bl	0 <memcpy>
  dc:	e51b2018 	ldr	r2, [fp, #-24]
  e0:	e51b3024 	ldr	r3, [fp, #-36]	; 0x24
  e4:	e2821024 	add	r1, r2, #36	; 0x24
  e8:	e2832024 	add	r2, r3, #36	; 0x24
  ec:	e3a03008 	mov	r3, #8
  f0:	e1a00001 	mov	r0, r1
  f4:	e1a01002 	mov	r1, r2
  f8:	e1a02003 	mov	r2, r3
  fc:	ebfffffe 	bl	0 <memcpy>
 100:	e51b3024 	ldr	r3, [fp, #-36]	; 0x24
 104:	e5d32024 	ldrb	r2, [r3, #36]	; 0x24
 108:	e5d31025 	ldrb	r1, [r3, #37]	; 0x25
 10c:	e1a01401 	lsl	r1, r1, #8
 110:	e1812002 	orr	r2, r1, r2
 114:	e5d31026 	ldrb	r1, [r3, #38]	; 0x26
 118:	e1a01801 	lsl	r1, r1, #16
 11c:	e1812002 	orr	r2, r1, r2
 120:	e5d33027 	ldrb	r3, [r3, #39]	; 0x27
 124:	e1a03c03 	lsl	r3, r3, #24
 128:	e1833002 	orr	r3, r3, r2
 12c:	e3730001 	cmn	r3, #1
 130:	1a000008 	bne	158 <urlTreeLeftRotate+0x158>
 134:	e51b3020 	ldr	r3, [fp, #-32]
 138:	e2831010 	add	r1, r3, #16
 13c:	e24b2014 	sub	r2, fp, #20
 140:	e3a03008 	mov	r3, #8
 144:	e1a00001 	mov	r0, r1
 148:	e1a01002 	mov	r1, r2
 14c:	e1a02003 	mov	r2, r3
 150:	ebfffffe 	bl	0 <memcpy>
 154:	ea000024 	b	1ec <urlTreeLeftRotate+0x1ec>
 158:	e51b3024 	ldr	r3, [fp, #-36]	; 0x24
 15c:	e2833024 	add	r3, r3, #36	; 0x24
 160:	e1a00003 	mov	r0, r3
 164:	ebfffffe 	bl	0 <urlTreeLeftRotate>
 168:	e1a03000 	mov	r3, r0
 16c:	e2833014 	add	r3, r3, #20
 170:	e1a00003 	mov	r0, r3
 174:	ebfffffe 	bl	0 <urlTreeLeftRotate>
 178:	e1a02000 	mov	r2, r0
 17c:	e51b3024 	ldr	r3, [fp, #-36]	; 0x24
 180:	e1520003 	cmp	r2, r3
 184:	1a00000c 	bne	1bc <urlTreeLeftRotate+0x1bc>
 188:	e51b3024 	ldr	r3, [fp, #-36]	; 0x24
 18c:	e2833024 	add	r3, r3, #36	; 0x24
 190:	e1a00003 	mov	r0, r3
 194:	ebfffffe 	bl	0 <urlTreeLeftRotate>
 198:	e1a03000 	mov	r3, r0
 19c:	e2831014 	add	r1, r3, #20
 1a0:	e24b2014 	sub	r2, fp, #20
 1a4:	e3a03008 	mov	r3, #8
 1a8:	e1a00001 	mov	r0, r1
 1ac:	e1a01002 	mov	r1, r2
 1b0:	e1a02003 	mov	r2, r3
 1b4:	ebfffffe 	bl	0 <memcpy>
 1b8:	ea00000b 	b	1ec <urlTreeLeftRotate+0x1ec>
 1bc:	e51b3024 	ldr	r3, [fp, #-36]	; 0x24
 1c0:	e2833024 	add	r3, r3, #36	; 0x24
 1c4:	e1a00003 	mov	r0, r3
 1c8:	ebfffffe 	bl	0 <urlTreeLeftRotate>
 1cc:	e1a03000 	mov	r3, r0
 1d0:	e283101c 	add	r1, r3, #28
 1d4:	e24b2014 	sub	r2, fp, #20
 1d8:	e3a03008 	mov	r3, #8
 1dc:	e1a00001 	mov	r0, r1
 1e0:	e1a01002 	mov	r1, r2
 1e4:	e1a02003 	mov	r2, r3
 1e8:	ebfffffe 	bl	0 <memcpy>
 1ec:	e51b3018 	ldr	r3, [fp, #-24]
 1f0:	e2831014 	add	r1, r3, #20
 1f4:	e24b200c 	sub	r2, fp, #12
 1f8:	e3a03008 	mov	r3, #8
 1fc:	e1a00001 	mov	r0, r1
 200:	e1a01002 	mov	r1, r2
 204:	e1a02003 	mov	r2, r3
 208:	ebfffffe 	bl	0 <memcpy>
 20c:	e51b3024 	ldr	r3, [fp, #-36]	; 0x24
 210:	e2831024 	add	r1, r3, #36	; 0x24
 214:	e24b2014 	sub	r2, fp, #20
 218:	e3a03008 	mov	r3, #8
 21c:	e1a00001 	mov	r0, r1
 220:	e1a01002 	mov	r1, r2
 224:	e1a02003 	mov	r2, r3
 228:	ebfffffe 	bl	0 <memcpy>
 22c:	e24bd004 	sub	sp, fp, #4
 230:	e8bd8800 	pop	{fp, pc}

Disassembly of section .text.urlTreeRightRotate:

00000000 <urlTreeRightRotate>:
   0:	e92d4800 	push	{fp, lr}
   4:	e28db004 	add	fp, sp, #4
   8:	e24dd020 	sub	sp, sp, #32
   c:	e50b0020 	str	r0, [fp, #-32]
  10:	e50b1024 	str	r1, [fp, #-36]	; 0x24
  14:	e51b3024 	ldr	r3, [fp, #-36]	; 0x24
  18:	e24b1014 	sub	r1, fp, #20
  1c:	e2832014 	add	r2, r3, #20
  20:	e3a03008 	mov	r3, #8
  24:	e1a00001 	mov	r0, r1
  28:	e1a01002 	mov	r1, r2
  2c:	e1a02003 	mov	r2, r3
  30:	ebfffffe 	bl	0 <memcpy>
  34:	e24b3014 	sub	r3, fp, #20
  38:	e1a00003 	mov	r0, r3
  3c:	ebfffffe 	bl	0 <urlTreeRightRotate>
  40:	e50b0018 	str	r0, [fp, #-24]
  44:	e24b300c 	sub	r3, fp, #12
  48:	e51b0024 	ldr	r0, [fp, #-36]	; 0x24
  4c:	e1a01003 	mov	r1, r3
  50:	ebfffffe 	bl	0 <urlTreeRightRotate>
  54:	e51b2024 	ldr	r2, [fp, #-36]	; 0x24
  58:	e51b3018 	ldr	r3, [fp, #-24]
  5c:	e2821014 	add	r1, r2, #20
  60:	e283201c 	add	r2, r3, #28
  64:	e3a03008 	mov	r3, #8
  68:	e1a00001 	mov	r0, r1
  6c:	e1a01002 	mov	r1, r2
  70:	e1a02003 	mov	r2, r3
  74:	ebfffffe 	bl	0 <memcpy>
  78:	e51b3018 	ldr	r3, [fp, #-24]
  7c:	e5d3201c 	ldrb	r2, [r3, #28]
  80:	e5d3101d 	ldrb	r1, [r3, #29]
  84:	e1a01401 	lsl	r1, r1, #8
  88:	e1812002 	orr	r2, r1, r2
  8c:	e5d3101e 	ldrb	r1, [r3, #30]
  90:	e1a01801 	lsl	r1, r1, #16
  94:	e1812002 	orr	r2, r1, r2
  98:	e5d3301f 	ldrb	r3, [r3, #31]
  9c:	e1a03c03 	lsl	r3, r3, #24
  a0:	e1833002 	orr	r3, r3, r2
  a4:	e3730001 	cmn	r3, #1
  a8:	0a00000b 	beq	dc <urlTreeRightRotate+0xdc>
  ac:	e51b3018 	ldr	r3, [fp, #-24]
  b0:	e283301c 	add	r3, r3, #28
  b4:	e1a00003 	mov	r0, r3
  b8:	ebfffffe 	bl	0 <urlTreeRightRotate>
  bc:	e1a03000 	mov	r3, r0
  c0:	e2831024 	add	r1, r3, #36	; 0x24
  c4:	e24b200c 	sub	r2, fp, #12
  c8:	e3a03008 	mov	r3, #8
  cc:	e1a00001 	mov	r0, r1
  d0:	e1a01002 	mov	r1, r2
  d4:	e1a02003 	mov	r2, r3
  d8:	ebfffffe 	bl	0 <memcpy>
  dc:	e51b2018 	ldr	r2, [fp, #-24]
  e0:	e51b3024 	ldr	r3, [fp, #-36]	; 0x24
  e4:	e2821024 	add	r1, r2, #36	; 0x24
  e8:	e2832024 	add	r2, r3, #36	; 0x24
  ec:	e3a03008 	mov	r3, #8
  f0:	e1a00001 	mov	r0, r1
  f4:	e1a01002 	mov	r1, r2
  f8:	e1a02003 	mov	r2, r3
  fc:	ebfffffe 	bl	0 <memcpy>
 100:	e51b3024 	ldr	r3, [fp, #-36]	; 0x24
 104:	e5d32024 	ldrb	r2, [r3, #36]	; 0x24
 108:	e5d31025 	ldrb	r1, [r3, #37]	; 0x25
 10c:	e1a01401 	lsl	r1, r1, #8
 110:	e1812002 	orr	r2, r1, r2
 114:	e5d31026 	ldrb	r1, [r3, #38]	; 0x26
 118:	e1a01801 	lsl	r1, r1, #16
 11c:	e1812002 	orr	r2, r1, r2
 120:	e5d33027 	ldrb	r3, [r3, #39]	; 0x27
 124:	e1a03c03 	lsl	r3, r3, #24
 128:	e1833002 	orr	r3, r3, r2
 12c:	e3730001 	cmn	r3, #1
 130:	1a000008 	bne	158 <urlTreeRightRotate+0x158>
 134:	e51b3020 	ldr	r3, [fp, #-32]
 138:	e2831010 	add	r1, r3, #16
 13c:	e24b2014 	sub	r2, fp, #20
 140:	e3a03008 	mov	r3, #8
 144:	e1a00001 	mov	r0, r1
 148:	e1a01002 	mov	r1, r2
 14c:	e1a02003 	mov	r2, r3
 150:	ebfffffe 	bl	0 <memcpy>
 154:	ea000024 	b	1ec <urlTreeRightRotate+0x1ec>
 158:	e51b3024 	ldr	r3, [fp, #-36]	; 0x24
 15c:	e2833024 	add	r3, r3, #36	; 0x24
 160:	e1a00003 	mov	r0, r3
 164:	ebfffffe 	bl	0 <urlTreeRightRotate>
 168:	e1a03000 	mov	r3, r0
 16c:	e2833014 	add	r3, r3, #20
 170:	e1a00003 	mov	r0, r3
 174:	ebfffffe 	bl	0 <urlTreeRightRotate>
 178:	e1a02000 	mov	r2, r0
 17c:	e51b3024 	ldr	r3, [fp, #-36]	; 0x24
 180:	e1520003 	cmp	r2, r3
 184:	1a00000c 	bne	1bc <urlTreeRightRotate+0x1bc>
 188:	e51b3024 	ldr	r3, [fp, #-36]	; 0x24
 18c:	e2833024 	add	r3, r3, #36	; 0x24
 190:	e1a00003 	mov	r0, r3
 194:	ebfffffe 	bl	0 <urlTreeRightRotate>
 198:	e1a03000 	mov	r3, r0
 19c:	e2831014 	add	r1, r3, #20
 1a0:	e24b2014 	sub	r2, fp, #20
 1a4:	e3a03008 	mov	r3, #8
 1a8:	e1a00001 	mov	r0, r1
 1ac:	e1a01002 	mov	r1, r2
 1b0:	e1a02003 	mov	r2, r3
 1b4:	ebfffffe 	bl	0 <memcpy>
 1b8:	ea00000b 	b	1ec <urlTreeRightRotate+0x1ec>
 1bc:	e51b3024 	ldr	r3, [fp, #-36]	; 0x24
 1c0:	e2833024 	add	r3, r3, #36	; 0x24
 1c4:	e1a00003 	mov	r0, r3
 1c8:	ebfffffe 	bl	0 <urlTreeRightRotate>
 1cc:	e1a03000 	mov	r3, r0
 1d0:	e283101c 	add	r1, r3, #28
 1d4:	e24b2014 	sub	r2, fp, #20
 1d8:	e3a03008 	mov	r3, #8
 1dc:	e1a00001 	mov	r0, r1
 1e0:	e1a01002 	mov	r1, r2
 1e4:	e1a02003 	mov	r2, r3
 1e8:	ebfffffe 	bl	0 <memcpy>
 1ec:	e51b3018 	ldr	r3, [fp, #-24]
 1f0:	e2831014 	add	r1, r3, #20
 1f4:	e24b200c 	sub	r2, fp, #12
 1f8:	e3a03008 	mov	r3, #8
 1fc:	e1a00001 	mov	r0, r1
 200:	e1a01002 	mov	r1, r2
 204:	e1a02003 	mov	r2, r3
 208:	ebfffffe 	bl	0 <memcpy>
 20c:	e51b3024 	ldr	r3, [fp, #-36]	; 0x24
 210:	e2831024 	add	r1, r3, #36	; 0x24
 214:	e24b2014 	sub	r2, fp, #20
 218:	e3a03008 	mov	r3, #8
 21c:	e1a00001 	mov	r0, r1
 220:	e1a01002 	mov	r1, r2
 224:	e1a02003 	mov	r2, r3
 228:	ebfffffe 	bl	0 <memcpy>
 22c:	e24bd004 	sub	sp, fp, #4
 230:	e8bd8800 	pop	{fp, pc}

Disassembly of section .text.findUrlPoolByIndex:

00000000 <findUrlPoolByIndex>:
   0:	e52db004 	push	{fp}		; (str fp, [sp, #-4]!)
   4:	e28db000 	add	fp, sp, #0
   8:	e24dd014 	sub	sp, sp, #20
   c:	e50b0010 	str	r0, [fp, #-16]
  10:	e59f3114 	ldr	r3, [pc, #276]	; 12c <findUrlPoolByIndex+0x12c>
  14:	e08f3003 	add	r3, pc, r3
  18:	e59f2110 	ldr	r2, [pc, #272]	; 130 <findUrlPoolByIndex+0x130>
  1c:	e7933002 	ldr	r3, [r3, r2]
  20:	e5933000 	ldr	r3, [r3]
  24:	e50b300c 	str	r3, [fp, #-12]
  28:	e3a03000 	mov	r3, #0
  2c:	e50b3008 	str	r3, [fp, #-8]
  30:	e51b300c 	ldr	r3, [fp, #-12]
  34:	e3530000 	cmp	r3, #0
  38:	0a000030 	beq	100 <findUrlPoolByIndex+0x100>
  3c:	ea000016 	b	9c <findUrlPoolByIndex+0x9c>
  40:	e51b300c 	ldr	r3, [fp, #-12]
  44:	e30f2ff8 	movw	r2, #65528	; 0xfff8
  48:	e340200f 	movt	r2, #15
  4c:	e7d31002 	ldrb	r1, [r3, r2]
  50:	e30f2ff9 	movw	r2, #65529	; 0xfff9
  54:	e340200f 	movt	r2, #15
  58:	e7d32002 	ldrb	r2, [r3, r2]
  5c:	e1a02402 	lsl	r2, r2, #8
  60:	e1821001 	orr	r1, r2, r1
  64:	e30f2ffa 	movw	r2, #65530	; 0xfffa
  68:	e340200f 	movt	r2, #15
  6c:	e7d32002 	ldrb	r2, [r3, r2]
  70:	e1a02802 	lsl	r2, r2, #16
  74:	e1821001 	orr	r1, r2, r1
  78:	e30f2ffb 	movw	r2, #65531	; 0xfffb
  7c:	e340200f 	movt	r2, #15
  80:	e7d33002 	ldrb	r3, [r3, r2]
  84:	e1a03c03 	lsl	r3, r3, #24
  88:	e1833001 	orr	r3, r3, r1
  8c:	e50b300c 	str	r3, [fp, #-12]
  90:	e51b3008 	ldr	r3, [fp, #-8]
  94:	e2833001 	add	r3, r3, #1
  98:	e50b3008 	str	r3, [fp, #-8]
  9c:	e51b2008 	ldr	r2, [fp, #-8]
  a0:	e51b3010 	ldr	r3, [fp, #-16]
  a4:	e1520003 	cmp	r2, r3
  a8:	2a000014 	bcs	100 <findUrlPoolByIndex+0x100>
  ac:	e51b300c 	ldr	r3, [fp, #-12]
  b0:	e30f2ff8 	movw	r2, #65528	; 0xfff8
  b4:	e340200f 	movt	r2, #15
  b8:	e7d31002 	ldrb	r1, [r3, r2]
  bc:	e30f2ff9 	movw	r2, #65529	; 0xfff9
  c0:	e340200f 	movt	r2, #15
  c4:	e7d32002 	ldrb	r2, [r3, r2]
  c8:	e1a02402 	lsl	r2, r2, #8
  cc:	e1821001 	orr	r1, r2, r1
  d0:	e30f2ffa 	movw	r2, #65530	; 0xfffa
  d4:	e340200f 	movt	r2, #15
  d8:	e7d32002 	ldrb	r2, [r3, r2]
  dc:	e1a02802 	lsl	r2, r2, #16
  e0:	e1821001 	orr	r1, r2, r1
  e4:	e30f2ffb 	movw	r2, #65531	; 0xfffb
  e8:	e340200f 	movt	r2, #15
  ec:	e7d33002 	ldrb	r3, [r3, r2]
  f0:	e1a03c03 	lsl	r3, r3, #24
  f4:	e1833001 	orr	r3, r3, r1
  f8:	e3530000 	cmp	r3, #0
  fc:	1affffcf 	bne	40 <findUrlPoolByIndex+0x40>
 100:	e51b2008 	ldr	r2, [fp, #-8]
 104:	e51b3010 	ldr	r3, [fp, #-16]
 108:	e1520003 	cmp	r2, r3
 10c:	3a000001 	bcc	118 <findUrlPoolByIndex+0x118>
 110:	e51b300c 	ldr	r3, [fp, #-12]
 114:	ea000000 	b	11c <findUrlPoolByIndex+0x11c>
 118:	e3a03000 	mov	r3, #0
 11c:	e1a00003 	mov	r0, r3
 120:	e28bd000 	add	sp, fp, #0
 124:	e8bd0800 	pop	{fp}
 128:	e12fff1e 	bx	lr
 12c:	00000110 	.word	0x00000110
 130:	00000000 	.word	0x00000000

Disassembly of section .text.gotoNextNode:

00000000 <gotoNextNode>:
   0:	e92d4800 	push	{fp, lr}
   4:	e28db004 	add	fp, sp, #4
   8:	e24dd010 	sub	sp, sp, #16
   c:	e50b0010 	str	r0, [fp, #-16]
  10:	e51b3010 	ldr	r3, [fp, #-16]
  14:	e5d3200c 	ldrb	r2, [r3, #12]
  18:	e5d3100d 	ldrb	r1, [r3, #13]
  1c:	e1a01401 	lsl	r1, r1, #8
  20:	e1812002 	orr	r2, r1, r2
  24:	e5d3100e 	ldrb	r1, [r3, #14]
  28:	e1a01801 	lsl	r1, r1, #16
  2c:	e1812002 	orr	r2, r1, r2
  30:	e5d3300f 	ldrb	r3, [r3, #15]
  34:	e1a03c03 	lsl	r3, r3, #24
  38:	e1833002 	orr	r3, r3, r2
  3c:	e1a00003 	mov	r0, r3
  40:	ebfffffe 	bl	0 <gotoNextNode>
  44:	e50b0008 	str	r0, [fp, #-8]
  48:	e51b3008 	ldr	r3, [fp, #-8]
  4c:	e3530000 	cmp	r3, #0
  50:	0a00000d 	beq	8c <gotoNextNode+0x8c>
  54:	e51b2008 	ldr	r2, [fp, #-8]
  58:	e51b3010 	ldr	r3, [fp, #-16]
  5c:	e5d31010 	ldrb	r1, [r3, #16]
  60:	e5d30011 	ldrb	r0, [r3, #17]
  64:	e1a00400 	lsl	r0, r0, #8
  68:	e1801001 	orr	r1, r0, r1
  6c:	e5d30012 	ldrb	r0, [r3, #18]
  70:	e1a00800 	lsl	r0, r0, #16
  74:	e1801001 	orr	r1, r0, r1
  78:	e5d33013 	ldrb	r3, [r3, #19]
  7c:	e1a03c03 	lsl	r3, r3, #24
  80:	e1833001 	orr	r3, r3, r1
  84:	e0823003 	add	r3, r2, r3
  88:	ea000000 	b	90 <gotoNextNode+0x90>
  8c:	e3a03000 	mov	r3, #0
  90:	e1a00003 	mov	r0, r3
  94:	e24bd004 	sub	sp, fp, #4
  98:	e8bd8800 	pop	{fp, pc}

Disassembly of section .text.urlPoolIndexToName:

00000000 <urlPoolIndexToName>:
   0:	e92d4810 	push	{r4, fp, lr}
   4:	e28db008 	add	fp, sp, #8
   8:	e24dd00c 	sub	sp, sp, #12
   c:	e50b0010 	str	r0, [fp, #-16]
  10:	e59f4060 	ldr	r4, [pc, #96]	; 78 <urlPoolIndexToName+0x78>
  14:	e08f4004 	add	r4, pc, r4
  18:	e59f305c 	ldr	r3, [pc, #92]	; 7c <urlPoolIndexToName+0x7c>
  1c:	e7943003 	ldr	r3, [r4, r3]
  20:	e1a00003 	mov	r0, r3
  24:	e3a01014 	mov	r1, #20
  28:	e59f3050 	ldr	r3, [pc, #80]	; 80 <urlPoolIndexToName+0x80>
  2c:	e08f3003 	add	r3, pc, r3
  30:	e1a02003 	mov	r2, r3
  34:	e51b3010 	ldr	r3, [fp, #-16]
  38:	ebfffffe 	bl	0 <snprintf>
  3c:	e3a00004 	mov	r0, #4
  40:	e59f303c 	ldr	r3, [pc, #60]	; 84 <urlPoolIndexToName+0x84>
  44:	e08f3003 	add	r3, pc, r3
  48:	e1a01003 	mov	r1, r3
  4c:	e59f3034 	ldr	r3, [pc, #52]	; 88 <urlPoolIndexToName+0x88>
  50:	e08f3003 	add	r3, pc, r3
  54:	e1a02003 	mov	r2, r3
  58:	e59f301c 	ldr	r3, [pc, #28]	; 7c <urlPoolIndexToName+0x7c>
  5c:	e7943003 	ldr	r3, [r4, r3]
  60:	ebfffffe 	bl	0 <__android_log_print>
  64:	e59f3010 	ldr	r3, [pc, #16]	; 7c <urlPoolIndexToName+0x7c>
  68:	e7943003 	ldr	r3, [r4, r3]
  6c:	e1a00003 	mov	r0, r3
  70:	e24bd008 	sub	sp, fp, #8
  74:	e8bd8810 	pop	{r4, fp, pc}
  78:	0000005c 	.word	0x0000005c
  7c:	00000000 	.word	0x00000000
  80:	00000198 	.word	0x00000198
  84:	00000044 	.word	0x00000044
  88:	00000188 	.word	0x00000188

Disassembly of section .text.urlNodeAllocFromPool:

00000000 <urlNodeAllocFromPool>:
   0:	e92d4810 	push	{r4, fp, lr}
   4:	e28db008 	add	fp, sp, #8
   8:	e24dd02c 	sub	sp, sp, #44	; 0x2c
   c:	e50b0028 	str	r0, [fp, #-40]	; 0x28
  10:	e50b102c 	str	r1, [fp, #-44]	; 0x2c
  14:	e50b2030 	str	r2, [fp, #-48]	; 0x30
  18:	e59f4584 	ldr	r4, [pc, #1412]	; 5a4 <urlNodeAllocFromPool+0x5a4>
  1c:	e08f4004 	add	r4, pc, r4
  20:	e3a03000 	mov	r3, #0
  24:	e50b3024 	str	r3, [fp, #-36]	; 0x24
  28:	e59f3578 	ldr	r3, [pc, #1400]	; 5a8 <urlNodeAllocFromPool+0x5a8>
  2c:	e7943003 	ldr	r3, [r4, r3]
  30:	e5933000 	ldr	r3, [r3]
  34:	e50b3020 	str	r3, [fp, #-32]
  38:	e3a03000 	mov	r3, #0
  3c:	e50b301c 	str	r3, [fp, #-28]
  40:	e3a03000 	mov	r3, #0
  44:	e50b3018 	str	r3, [fp, #-24]
  48:	e51b302c 	ldr	r3, [fp, #-44]	; 0x2c
  4c:	e2833033 	add	r3, r3, #51	; 0x33
  50:	e3c33003 	bic	r3, r3, #3
  54:	e50b3014 	str	r3, [fp, #-20]
  58:	e51b3014 	ldr	r3, [fp, #-20]
  5c:	e3530a01 	cmp	r3, #4096	; 0x1000
  60:	8a000002 	bhi	70 <urlNodeAllocFromPool+0x70>
  64:	e51b3020 	ldr	r3, [fp, #-32]
  68:	e3530000 	cmp	r3, #0
  6c:	1a000001 	bne	78 <urlNodeAllocFromPool+0x78>
  70:	e3a03000 	mov	r3, #0
  74:	ea000147 	b	598 <urlNodeAllocFromPool+0x598>
  78:	e51b3020 	ldr	r3, [fp, #-32]
  7c:	e30f2ff4 	movw	r2, #65524	; 0xfff4
  80:	e340200f 	movt	r2, #15
  84:	e7d31002 	ldrb	r1, [r3, r2]
  88:	e30f2ff5 	movw	r2, #65525	; 0xfff5
  8c:	e340200f 	movt	r2, #15
  90:	e7d32002 	ldrb	r2, [r3, r2]
  94:	e1a02402 	lsl	r2, r2, #8
  98:	e1821001 	orr	r1, r2, r1
  9c:	e30f2ff6 	movw	r2, #65526	; 0xfff6
  a0:	e340200f 	movt	r2, #15
  a4:	e7d32002 	ldrb	r2, [r3, r2]
  a8:	e1a02802 	lsl	r2, r2, #16
  ac:	e1821001 	orr	r1, r2, r1
  b0:	e30f2ff7 	movw	r2, #65527	; 0xfff7
  b4:	e340200f 	movt	r2, #15
  b8:	e7d33002 	ldrb	r3, [r3, r2]
  bc:	e1a03c03 	lsl	r3, r3, #24
  c0:	e1833001 	orr	r3, r3, r1
  c4:	e1a02003 	mov	r2, r3
  c8:	e51b3014 	ldr	r3, [fp, #-20]
  cc:	e0822003 	add	r2, r2, r3
  d0:	e30f3ff4 	movw	r3, #65524	; 0xfff4
  d4:	e340300f 	movt	r3, #15
  d8:	e1520003 	cmp	r2, r3
  dc:	8a000049 	bhi	208 <urlNodeAllocFromPool+0x208>
  e0:	e51b3020 	ldr	r3, [fp, #-32]
  e4:	e30f2ff4 	movw	r2, #65524	; 0xfff4
  e8:	e340200f 	movt	r2, #15
  ec:	e7d31002 	ldrb	r1, [r3, r2]
  f0:	e30f2ff5 	movw	r2, #65525	; 0xfff5
  f4:	e340200f 	movt	r2, #15
  f8:	e7d32002 	ldrb	r2, [r3, r2]
  fc:	e1a02402 	lsl	r2, r2, #8
 100:	e1821001 	orr	r1, r2, r1
 104:	e30f2ff6 	movw	r2, #65526	; 0xfff6
 108:	e340200f 	movt	r2, #15
 10c:	e7d32002 	ldrb	r2, [r3, r2]
 110:	e1a02802 	lsl	r2, r2, #16
 114:	e1821001 	orr	r1, r2, r1
 118:	e30f2ff7 	movw	r2, #65527	; 0xfff7
 11c:	e340200f 	movt	r2, #15
 120:	e7d33002 	ldrb	r3, [r3, r2]
 124:	e1a03c03 	lsl	r3, r3, #24
 128:	e1833001 	orr	r3, r3, r1
 12c:	e50b3018 	str	r3, [fp, #-24]
 130:	e51b3020 	ldr	r3, [fp, #-32]
 134:	e30f2ff4 	movw	r2, #65524	; 0xfff4
 138:	e340200f 	movt	r2, #15
 13c:	e7d31002 	ldrb	r1, [r3, r2]
 140:	e30f2ff5 	movw	r2, #65525	; 0xfff5
 144:	e340200f 	movt	r2, #15
 148:	e7d32002 	ldrb	r2, [r3, r2]
 14c:	e1a02402 	lsl	r2, r2, #8
 150:	e1821001 	orr	r1, r2, r1
 154:	e30f2ff6 	movw	r2, #65526	; 0xfff6
 158:	e340200f 	movt	r2, #15
 15c:	e7d32002 	ldrb	r2, [r3, r2]
 160:	e1a02802 	lsl	r2, r2, #16
 164:	e1821001 	orr	r1, r2, r1
 168:	e30f2ff7 	movw	r2, #65527	; 0xfff7
 16c:	e340200f 	movt	r2, #15
 170:	e7d33002 	ldrb	r3, [r3, r2]
 174:	e1a03c03 	lsl	r3, r3, #24
 178:	e1833001 	orr	r3, r3, r1
 17c:	e1a02003 	mov	r2, r3
 180:	e51b3014 	ldr	r3, [fp, #-20]
 184:	e0822003 	add	r2, r2, r3
 188:	e51b3020 	ldr	r3, [fp, #-32]
 18c:	e6ef0072 	uxtb	r0, r2
 190:	e30f1ff4 	movw	r1, #65524	; 0xfff4
 194:	e340100f 	movt	r1, #15
 198:	e3a0c000 	mov	ip, #0
 19c:	e18c0000 	orr	r0, ip, r0
 1a0:	e7c30001 	strb	r0, [r3, r1]
 1a4:	e1a01422 	lsr	r1, r2, #8
 1a8:	e6ef0071 	uxtb	r0, r1
 1ac:	e30f1ff5 	movw	r1, #65525	; 0xfff5
 1b0:	e340100f 	movt	r1, #15
 1b4:	e3a0c000 	mov	ip, #0
 1b8:	e18c0000 	orr	r0, ip, r0
 1bc:	e7c30001 	strb	r0, [r3, r1]
 1c0:	e1a01822 	lsr	r1, r2, #16
 1c4:	e6ef0071 	uxtb	r0, r1
 1c8:	e30f1ff6 	movw	r1, #65526	; 0xfff6
 1cc:	e340100f 	movt	r1, #15
 1d0:	e3a0c000 	mov	ip, #0
 1d4:	e18c0000 	orr	r0, ip, r0
 1d8:	e7c30001 	strb	r0, [r3, r1]
 1dc:	e1a01c22 	lsr	r1, r2, #24
 1e0:	e30f2ff7 	movw	r2, #65527	; 0xfff7
 1e4:	e340200f 	movt	r2, #15
 1e8:	e3a00000 	mov	r0, #0
 1ec:	e1801001 	orr	r1, r0, r1
 1f0:	e7c31002 	strb	r1, [r3, r2]
 1f4:	e51b2020 	ldr	r2, [fp, #-32]
 1f8:	e51b3018 	ldr	r3, [fp, #-24]
 1fc:	e0823003 	add	r3, r2, r3
 200:	e50b3024 	str	r3, [fp, #-36]	; 0x24
 204:	ea0000b1 	b	4d0 <urlNodeAllocFromPool+0x4d0>
 208:	e51b301c 	ldr	r3, [fp, #-28]
 20c:	e2833001 	add	r3, r3, #1
 210:	e50b301c 	str	r3, [fp, #-28]
 214:	e51b3020 	ldr	r3, [fp, #-32]
 218:	e30f2ff8 	movw	r2, #65528	; 0xfff8
 21c:	e340200f 	movt	r2, #15
 220:	e7d31002 	ldrb	r1, [r3, r2]
 224:	e30f2ff9 	movw	r2, #65529	; 0xfff9
 228:	e340200f 	movt	r2, #15
 22c:	e7d32002 	ldrb	r2, [r3, r2]
 230:	e1a02402 	lsl	r2, r2, #8
 234:	e1821001 	orr	r1, r2, r1
 238:	e30f2ffa 	movw	r2, #65530	; 0xfffa
 23c:	e340200f 	movt	r2, #15
 240:	e7d32002 	ldrb	r2, [r3, r2]
 244:	e1a02802 	lsl	r2, r2, #16
 248:	e1821001 	orr	r1, r2, r1
 24c:	e30f2ffb 	movw	r2, #65531	; 0xfffb
 250:	e340200f 	movt	r2, #15
 254:	e7d33002 	ldrb	r3, [r3, r2]
 258:	e1a03c03 	lsl	r3, r3, #24
 25c:	e1833001 	orr	r3, r3, r1
 260:	e3530000 	cmp	r3, #0
 264:	0a000014 	beq	2bc <urlNodeAllocFromPool+0x2bc>
 268:	e51b3020 	ldr	r3, [fp, #-32]
 26c:	e30f2ff8 	movw	r2, #65528	; 0xfff8
 270:	e340200f 	movt	r2, #15
 274:	e7d31002 	ldrb	r1, [r3, r2]
 278:	e30f2ff9 	movw	r2, #65529	; 0xfff9
 27c:	e340200f 	movt	r2, #15
 280:	e7d32002 	ldrb	r2, [r3, r2]
 284:	e1a02402 	lsl	r2, r2, #8
 288:	e1821001 	orr	r1, r2, r1
 28c:	e30f2ffa 	movw	r2, #65530	; 0xfffa
 290:	e340200f 	movt	r2, #15
 294:	e7d32002 	ldrb	r2, [r3, r2]
 298:	e1a02802 	lsl	r2, r2, #16
 29c:	e1821001 	orr	r1, r2, r1
 2a0:	e30f2ffb 	movw	r2, #65531	; 0xfffb
 2a4:	e340200f 	movt	r2, #15
 2a8:	e7d33002 	ldrb	r3, [r3, r2]
 2ac:	e1a03c03 	lsl	r3, r3, #24
 2b0:	e1833001 	orr	r3, r3, r1
 2b4:	e50b3020 	str	r3, [fp, #-32]
 2b8:	eaffff6e 	b	78 <urlNodeAllocFromPool+0x78>
 2bc:	e59f32e8 	ldr	r3, [pc, #744]	; 5ac <urlNodeAllocFromPool+0x5ac>
 2c0:	e7943003 	ldr	r3, [r4, r3]
 2c4:	e5933000 	ldr	r3, [r3]
 2c8:	e5d32050 	ldrb	r2, [r3, #80]	; 0x50
 2cc:	e5d31051 	ldrb	r1, [r3, #81]	; 0x51
 2d0:	e1a01401 	lsl	r1, r1, #8
 2d4:	e1812002 	orr	r2, r1, r2
 2d8:	e5d31052 	ldrb	r1, [r3, #82]	; 0x52
 2dc:	e1a01801 	lsl	r1, r1, #16
 2e0:	e1812002 	orr	r2, r1, r2
 2e4:	e5d33053 	ldrb	r3, [r3, #83]	; 0x53
 2e8:	e1a03c03 	lsl	r3, r3, #24
 2ec:	e1833002 	orr	r3, r3, r2
 2f0:	e1a00003 	mov	r0, r3
 2f4:	ebfffffe 	bl	0 <urlNodeAllocFromPool>
 2f8:	e1a03000 	mov	r3, r0
 2fc:	e51b0028 	ldr	r0, [fp, #-40]	; 0x28
 300:	e1a01003 	mov	r1, r3
 304:	e30f2ffc 	movw	r2, #65532	; 0xfffc
 308:	e340200f 	movt	r2, #15
 30c:	ebfffffe 	bl	0 <urlNodeAllocFromPool>
 310:	e50b0010 	str	r0, [fp, #-16]
 314:	e51b3010 	ldr	r3, [fp, #-16]
 318:	e3530000 	cmp	r3, #0
 31c:	0a00006a 	beq	4cc <urlNodeAllocFromPool+0x4cc>
 320:	e3a00004 	mov	r0, #4
 324:	e59f3284 	ldr	r3, [pc, #644]	; 5b0 <urlNodeAllocFromPool+0x5b0>
 328:	e08f3003 	add	r3, pc, r3
 32c:	e1a01003 	mov	r1, r3
 330:	e59f327c 	ldr	r3, [pc, #636]	; 5b4 <urlNodeAllocFromPool+0x5b4>
 334:	e08f3003 	add	r3, pc, r3
 338:	e1a02003 	mov	r2, r3
 33c:	ebfffffe 	bl	0 <__android_log_print>
 340:	e59f3264 	ldr	r3, [pc, #612]	; 5ac <urlNodeAllocFromPool+0x5ac>
 344:	e7943003 	ldr	r3, [r4, r3]
 348:	e5933000 	ldr	r3, [r3]
 34c:	e5d32050 	ldrb	r2, [r3, #80]	; 0x50
 350:	e5d31051 	ldrb	r1, [r3, #81]	; 0x51
 354:	e1a01401 	lsl	r1, r1, #8
 358:	e1812002 	orr	r2, r1, r2
 35c:	e5d31052 	ldrb	r1, [r3, #82]	; 0x52
 360:	e1a01801 	lsl	r1, r1, #16
 364:	e1812002 	orr	r2, r1, r2
 368:	e5d31053 	ldrb	r1, [r3, #83]	; 0x53
 36c:	e1a01c01 	lsl	r1, r1, #24
 370:	e1812002 	orr	r2, r1, r2
 374:	e2822001 	add	r2, r2, #1
 378:	e6ef1072 	uxtb	r1, r2
 37c:	e3a00000 	mov	r0, #0
 380:	e1801001 	orr	r1, r0, r1
 384:	e5c31050 	strb	r1, [r3, #80]	; 0x50
 388:	e1a01422 	lsr	r1, r2, #8
 38c:	e6ef1071 	uxtb	r1, r1
 390:	e3a00000 	mov	r0, #0
 394:	e1801001 	orr	r1, r0, r1
 398:	e5c31051 	strb	r1, [r3, #81]	; 0x51
 39c:	e1a01822 	lsr	r1, r2, #16
 3a0:	e6ef1071 	uxtb	r1, r1
 3a4:	e3a00000 	mov	r0, #0
 3a8:	e1801001 	orr	r1, r0, r1
 3ac:	e5c31052 	strb	r1, [r3, #82]	; 0x52
 3b0:	e1a02c22 	lsr	r2, r2, #24
 3b4:	e3a01000 	mov	r1, #0
 3b8:	e1812002 	orr	r2, r1, r2
 3bc:	e5c32053 	strb	r2, [r3, #83]	; 0x53
 3c0:	e51b3010 	ldr	r3, [fp, #-16]
 3c4:	e2832004 	add	r2, r3, #4
 3c8:	e51b3020 	ldr	r3, [fp, #-32]
 3cc:	e6ef0072 	uxtb	r0, r2
 3d0:	e30f1ff8 	movw	r1, #65528	; 0xfff8
 3d4:	e340100f 	movt	r1, #15
 3d8:	e3a0c000 	mov	ip, #0
 3dc:	e18c0000 	orr	r0, ip, r0
 3e0:	e7c30001 	strb	r0, [r3, r1]
 3e4:	e1a01422 	lsr	r1, r2, #8
 3e8:	e6ef0071 	uxtb	r0, r1
 3ec:	e30f1ff9 	movw	r1, #65529	; 0xfff9
 3f0:	e340100f 	movt	r1, #15
 3f4:	e3a0c000 	mov	ip, #0
 3f8:	e18c0000 	orr	r0, ip, r0
 3fc:	e7c30001 	strb	r0, [r3, r1]
 400:	e1a01822 	lsr	r1, r2, #16
 404:	e6ef0071 	uxtb	r0, r1
 408:	e30f1ffa 	movw	r1, #65530	; 0xfffa
 40c:	e340100f 	movt	r1, #15
 410:	e3a0c000 	mov	ip, #0
 414:	e18c0000 	orr	r0, ip, r0
 418:	e7c30001 	strb	r0, [r3, r1]
 41c:	e1a01c22 	lsr	r1, r2, #24
 420:	e30f2ffb 	movw	r2, #65531	; 0xfffb
 424:	e340200f 	movt	r2, #15
 428:	e3a00000 	mov	r0, #0
 42c:	e1801001 	orr	r1, r0, r1
 430:	e7c31002 	strb	r1, [r3, r2]
 434:	e51b3010 	ldr	r3, [fp, #-16]
 438:	e2833004 	add	r3, r3, #4
 43c:	e50b3020 	str	r3, [fp, #-32]
 440:	e51b3020 	ldr	r3, [fp, #-32]
 444:	e30f2ff4 	movw	r2, #65524	; 0xfff4
 448:	e340200f 	movt	r2, #15
 44c:	e3a01000 	mov	r1, #0
 450:	e7c31002 	strb	r1, [r3, r2]
 454:	e30f2ff5 	movw	r2, #65525	; 0xfff5
 458:	e340200f 	movt	r2, #15
 45c:	e3a01000 	mov	r1, #0
 460:	e7c31002 	strb	r1, [r3, r2]
 464:	e30f2ff6 	movw	r2, #65526	; 0xfff6
 468:	e340200f 	movt	r2, #15
 46c:	e3a01000 	mov	r1, #0
 470:	e7c31002 	strb	r1, [r3, r2]
 474:	e30f2ff7 	movw	r2, #65527	; 0xfff7
 478:	e340200f 	movt	r2, #15
 47c:	e3a01000 	mov	r1, #0
 480:	e7c31002 	strb	r1, [r3, r2]
 484:	e51b3020 	ldr	r3, [fp, #-32]
 488:	e30f2ff8 	movw	r2, #65528	; 0xfff8
 48c:	e340200f 	movt	r2, #15
 490:	e3a01000 	mov	r1, #0
 494:	e7c31002 	strb	r1, [r3, r2]
 498:	e30f2ff9 	movw	r2, #65529	; 0xfff9
 49c:	e340200f 	movt	r2, #15
 4a0:	e3a01000 	mov	r1, #0
 4a4:	e7c31002 	strb	r1, [r3, r2]
 4a8:	e30f2ffa 	movw	r2, #65530	; 0xfffa
 4ac:	e340200f 	movt	r2, #15
 4b0:	e3a01000 	mov	r1, #0
 4b4:	e7c31002 	strb	r1, [r3, r2]
 4b8:	e30f2ffb 	movw	r2, #65531	; 0xfffb
 4bc:	e340200f 	movt	r2, #15
 4c0:	e3a01000 	mov	r1, #0
 4c4:	e7c31002 	strb	r1, [r3, r2]
 4c8:	eafffeea 	b	78 <urlNodeAllocFromPool+0x78>
 4cc:	e1a00000 	nop			; (mov r0, r0)
 4d0:	e51b3024 	ldr	r3, [fp, #-36]	; 0x24
 4d4:	e3530000 	cmp	r3, #0
 4d8:	0a00002d 	beq	594 <urlNodeAllocFromPool+0x594>
 4dc:	e51b3030 	ldr	r3, [fp, #-48]	; 0x30
 4e0:	e3530000 	cmp	r3, #0
 4e4:	0a000021 	beq	570 <urlNodeAllocFromPool+0x570>
 4e8:	e51b3030 	ldr	r3, [fp, #-48]	; 0x30
 4ec:	e55b201c 	ldrb	r2, [fp, #-28]
 4f0:	e3a01000 	mov	r1, #0
 4f4:	e1812002 	orr	r2, r1, r2
 4f8:	e5c32000 	strb	r2, [r3]
 4fc:	e55b201b 	ldrb	r2, [fp, #-27]
 500:	e3a01000 	mov	r1, #0
 504:	e1812002 	orr	r2, r1, r2
 508:	e5c32001 	strb	r2, [r3, #1]
 50c:	e55b201a 	ldrb	r2, [fp, #-26]
 510:	e3a01000 	mov	r1, #0
 514:	e1812002 	orr	r2, r1, r2
 518:	e5c32002 	strb	r2, [r3, #2]
 51c:	e55b2019 	ldrb	r2, [fp, #-25]
 520:	e3a01000 	mov	r1, #0
 524:	e1812002 	orr	r2, r1, r2
 528:	e5c32003 	strb	r2, [r3, #3]
 52c:	e51b3030 	ldr	r3, [fp, #-48]	; 0x30
 530:	e55b2018 	ldrb	r2, [fp, #-24]
 534:	e3a01000 	mov	r1, #0
 538:	e1812002 	orr	r2, r1, r2
 53c:	e5c32004 	strb	r2, [r3, #4]
 540:	e55b2017 	ldrb	r2, [fp, #-23]
 544:	e3a01000 	mov	r1, #0
 548:	e1812002 	orr	r2, r1, r2
 54c:	e5c32005 	strb	r2, [r3, #5]
 550:	e55b2016 	ldrb	r2, [fp, #-22]
 554:	e3a01000 	mov	r1, #0
 558:	e1812002 	orr	r2, r1, r2
 55c:	e5c32006 	strb	r2, [r3, #6]
 560:	e55b2015 	ldrb	r2, [fp, #-21]
 564:	e3a01000 	mov	r1, #0
 568:	e1812002 	orr	r2, r1, r2
 56c:	e5c32007 	strb	r2, [r3, #7]
 570:	e51b3024 	ldr	r3, [fp, #-36]	; 0x24
 574:	e3e02000 	mvn	r2, #0
 578:	e5c3200c 	strb	r2, [r3, #12]
 57c:	e3e02000 	mvn	r2, #0
 580:	e5c3200d 	strb	r2, [r3, #13]
 584:	e3e02000 	mvn	r2, #0
 588:	e5c3200e 	strb	r2, [r3, #14]
 58c:	e3e02000 	mvn	r2, #0
 590:	e5c3200f 	strb	r2, [r3, #15]
 594:	e51b3024 	ldr	r3, [fp, #-36]	; 0x24
 598:	e1a00003 	mov	r0, r3
 59c:	e24bd008 	sub	sp, fp, #8
 5a0:	e8bd8810 	pop	{r4, fp, pc}
 5a4:	00000580 	.word	0x00000580
	...
 5b0:	0000028c 	.word	0x0000028c
 5b4:	000003e4 	.word	0x000003e4

Disassembly of section .text.spiderReportProcess:

00000000 <spiderReportProcess>:
   0:	e92d4870 	.word	0xe92d4870
   4:	e28db010 	add	fp, sp, #16
   8:	e24dd01c 	sub	sp, sp, #28
   c:	e50b0018 	str	r0, [fp, #-24]
  10:	e59f41d4 	ldr	r4, [pc, #468]	; 1ec <spiderReportProcess+0x1ec>
  14:	e08f4004 	add	r4, pc, r4
  18:	e59f31d0 	ldr	r3, [pc, #464]	; 1f0 <spiderReportProcess+0x1f0>
  1c:	e7943003 	ldr	r3, [r4, r3]
  20:	e5933000 	ldr	r3, [r3]
  24:	e3530000 	cmp	r3, #0
  28:	1a000022 	bne	b8 <spiderReportProcess+0xb8>
  2c:	e51b3018 	ldr	r3, [fp, #-24]
  30:	e5933000 	ldr	r3, [r3]
  34:	e5932018 	ldr	r2, [r3, #24]
  38:	e51b0018 	ldr	r0, [fp, #-24]
  3c:	e59f31b0 	ldr	r3, [pc, #432]	; 1f4 <spiderReportProcess+0x1f4>
  40:	e08f3003 	add	r3, pc, r3
  44:	e1a01003 	mov	r1, r3
  48:	e12fff32 	blx	r2
  4c:	e1a02000 	mov	r2, r0
  50:	e59f31a0 	ldr	r3, [pc, #416]	; 1f8 <spiderReportProcess+0x1f8>
  54:	e7943003 	ldr	r3, [r4, r3]
  58:	e5832000 	str	r2, [r3]
  5c:	e59f3194 	ldr	r3, [pc, #404]	; 1f8 <spiderReportProcess+0x1f8>
  60:	e7943003 	ldr	r3, [r4, r3]
  64:	e5933000 	ldr	r3, [r3]
  68:	e3530000 	cmp	r3, #0
  6c:	0a000011 	beq	b8 <spiderReportProcess+0xb8>
  70:	e51b3018 	ldr	r3, [fp, #-24]
  74:	e5933000 	ldr	r3, [r3]
  78:	e593c084 	ldr	ip, [r3, #132]	; 0x84
  7c:	e59f3174 	ldr	r3, [pc, #372]	; 1f8 <spiderReportProcess+0x1f8>
  80:	e7943003 	ldr	r3, [r4, r3]
  84:	e5933000 	ldr	r3, [r3]
  88:	e51b0018 	ldr	r0, [fp, #-24]
  8c:	e1a01003 	mov	r1, r3
  90:	e59f3164 	ldr	r3, [pc, #356]	; 1fc <spiderReportProcess+0x1fc>
  94:	e08f3003 	add	r3, pc, r3
  98:	e1a02003 	mov	r2, r3
  9c:	e59f315c 	ldr	r3, [pc, #348]	; 200 <spiderReportProcess+0x200>
  a0:	e08f3003 	add	r3, pc, r3
  a4:	e12fff3c 	blx	ip
  a8:	e1a02000 	mov	r2, r0
  ac:	e59f313c 	ldr	r3, [pc, #316]	; 1f0 <spiderReportProcess+0x1f0>
  b0:	e7943003 	ldr	r3, [r4, r3]
  b4:	e5832000 	str	r2, [r3]
  b8:	e59f3130 	ldr	r3, [pc, #304]	; 1f0 <spiderReportProcess+0x1f0>
  bc:	e7943003 	ldr	r3, [r4, r3]
  c0:	e5933000 	ldr	r3, [r3]
  c4:	e3530000 	cmp	r3, #0
  c8:	0a000045 	beq	1e4 <spiderReportProcess+0x1e4>
  cc:	e51b3018 	ldr	r3, [fp, #-24]
  d0:	e5933000 	ldr	r3, [r3]
  d4:	e593c0f4 	ldr	ip, [r3, #244]	; 0xf4
  d8:	e59f3124 	ldr	r3, [pc, #292]	; 204 <spiderReportProcess+0x204>
  dc:	e7943003 	ldr	r3, [r4, r3]
  e0:	e5931000 	ldr	r1, [r3]
  e4:	e59f3104 	ldr	r3, [pc, #260]	; 1f0 <spiderReportProcess+0x1f0>
  e8:	e7943003 	ldr	r3, [r4, r3]
  ec:	e5932000 	ldr	r2, [r3]
  f0:	e59f3110 	ldr	r3, [pc, #272]	; 208 <spiderReportProcess+0x208>
  f4:	e7943003 	ldr	r3, [r4, r3]
  f8:	e5933000 	ldr	r3, [r3]
  fc:	e5d3004c 	ldrb	r0, [r3, #76]	; 0x4c
 100:	e5d3e04d 	ldrb	lr, [r3, #77]	; 0x4d
 104:	e1a0e40e 	lsl	lr, lr, #8
 108:	e18e0000 	orr	r0, lr, r0
 10c:	e5d3e04e 	ldrb	lr, [r3, #78]	; 0x4e
 110:	e1a0e80e 	lsl	lr, lr, #16
 114:	e18e0000 	orr	r0, lr, r0
 118:	e5d3304f 	ldrb	r3, [r3, #79]	; 0x4f
 11c:	e1a03c03 	lsl	r3, r3, #24
 120:	e1833000 	orr	r3, r3, r0
 124:	e1a0e003 	mov	lr, r3
 128:	e59f30d8 	ldr	r3, [pc, #216]	; 208 <spiderReportProcess+0x208>
 12c:	e7943003 	ldr	r3, [r4, r3]
 130:	e5933000 	ldr	r3, [r3]
 134:	e5d30048 	ldrb	r0, [r3, #72]	; 0x48
 138:	e5d35049 	ldrb	r5, [r3, #73]	; 0x49
 13c:	e1a05405 	lsl	r5, r5, #8
 140:	e1850000 	orr	r0, r5, r0
 144:	e5d3504a 	ldrb	r5, [r3, #74]	; 0x4a
 148:	e1a05805 	lsl	r5, r5, #16
 14c:	e1850000 	orr	r0, r5, r0
 150:	e5d3304b 	ldrb	r3, [r3, #75]	; 0x4b
 154:	e1a03c03 	lsl	r3, r3, #24
 158:	e1833000 	orr	r3, r3, r0
 15c:	e1a05003 	mov	r5, r3
 160:	e59f30a0 	ldr	r3, [pc, #160]	; 208 <spiderReportProcess+0x208>
 164:	e7943003 	ldr	r3, [r4, r3]
 168:	e5933000 	ldr	r3, [r3]
 16c:	e5d30024 	ldrb	r0, [r3, #36]	; 0x24
 170:	e5d36025 	ldrb	r6, [r3, #37]	; 0x25
 174:	e1a06406 	lsl	r6, r6, #8
 178:	e1860000 	orr	r0, r6, r0
 17c:	e5d36026 	ldrb	r6, [r3, #38]	; 0x26
 180:	e1a06806 	lsl	r6, r6, #16
 184:	e1860000 	orr	r0, r6, r0
 188:	e5d33027 	ldrb	r3, [r3, #39]	; 0x27
 18c:	e1a03c03 	lsl	r3, r3, #24
 190:	e1833000 	orr	r3, r3, r0
 194:	e1a00003 	mov	r0, r3
 198:	e59f3068 	ldr	r3, [pc, #104]	; 208 <spiderReportProcess+0x208>
 19c:	e7943003 	ldr	r3, [r4, r3]
 1a0:	e5933000 	ldr	r3, [r3]
 1a4:	e5d34020 	ldrb	r4, [r3, #32]
 1a8:	e5d36021 	ldrb	r6, [r3, #33]	; 0x21
 1ac:	e1a06406 	lsl	r6, r6, #8
 1b0:	e1864004 	orr	r4, r6, r4
 1b4:	e5d36022 	ldrb	r6, [r3, #34]	; 0x22
 1b8:	e1a06806 	lsl	r6, r6, #16
 1bc:	e1864004 	orr	r4, r6, r4
 1c0:	e5d33023 	ldrb	r3, [r3, #35]	; 0x23
 1c4:	e1a03c03 	lsl	r3, r3, #24
 1c8:	e1833004 	orr	r3, r3, r4
 1cc:	e58d5000 	str	r5, [sp]
 1d0:	e58d0004 	str	r0, [sp, #4]
 1d4:	e58d3008 	str	r3, [sp, #8]
 1d8:	e51b0018 	ldr	r0, [fp, #-24]
 1dc:	e1a0300e 	mov	r3, lr
 1e0:	e12fff3c 	blx	ip
 1e4:	e24bd010 	sub	sp, fp, #16
 1e8:	e8bd8870 	pop	{r4, r5, r6, fp, pc}
 1ec:	000001d0 	.word	0x000001d0
 1f0:	00000000 	.word	0x00000000
 1f4:	00000268 	.word	0x00000268
 1f8:	00000000 	.word	0x00000000
 1fc:	000002e8 	.word	0x000002e8
 200:	000002ec 	.word	0x000002ec
	...

Disassembly of section .text.spiderParaInit:

00000000 <spiderParaInit>:
   0:	e92d4810 	push	{r4, fp, lr}
   4:	e28db008 	add	fp, sp, #8
   8:	e24dd014 	sub	sp, sp, #20
   c:	e50b0018 	str	r0, [fp, #-24]
  10:	e59f42dc 	ldr	r4, [pc, #732]	; 2f4 <spiderParaInit+0x2f4>
  14:	e08f4004 	add	r4, pc, r4
  18:	e51b0018 	ldr	r0, [fp, #-24]
  1c:	e59f32d4 	ldr	r3, [pc, #724]	; 2f8 <spiderParaInit+0x2f8>
  20:	e08f3003 	add	r3, pc, r3
  24:	e1a01003 	mov	r1, r3
  28:	e3a02054 	mov	r2, #84	; 0x54
  2c:	ebfffffe 	bl	0 <spiderParaInit>
  30:	e50b0010 	str	r0, [fp, #-16]
  34:	e51b3010 	ldr	r3, [fp, #-16]
  38:	e3530000 	cmp	r3, #0
  3c:	0a0000a8 	beq	2e4 <spiderParaInit+0x2e4>
  40:	e51b3010 	ldr	r3, [fp, #-16]
  44:	e2832004 	add	r2, r3, #4
  48:	e59f32ac 	ldr	r3, [pc, #684]	; 2fc <spiderParaInit+0x2fc>
  4c:	e7943003 	ldr	r3, [r4, r3]
  50:	e5832000 	str	r2, [r3]
  54:	e51b3010 	ldr	r3, [fp, #-16]
  58:	e5d32000 	ldrb	r2, [r3]
  5c:	e5d31001 	ldrb	r1, [r3, #1]
  60:	e1a01401 	lsl	r1, r1, #8
  64:	e1812002 	orr	r2, r1, r2
  68:	e5d31002 	ldrb	r1, [r3, #2]
  6c:	e1a01801 	lsl	r1, r1, #16
  70:	e1812002 	orr	r2, r1, r2
  74:	e5d33003 	ldrb	r3, [r3, #3]
  78:	e1a03c03 	lsl	r3, r3, #24
  7c:	e1833002 	orr	r3, r3, r2
  80:	e1a02003 	mov	r2, r3
  84:	e3053678 	movw	r3, #22136	; 0x5678
  88:	e3413234 	movt	r3, #4660	; 0x1234
  8c:	e1520003 	cmp	r2, r3
  90:	0a00008f 	beq	2d4 <spiderParaInit+0x2d4>
  94:	e59f3260 	ldr	r3, [pc, #608]	; 2fc <spiderParaInit+0x2fc>
  98:	e7943003 	ldr	r3, [r4, r3]
  9c:	e5933000 	ldr	r3, [r3]
  a0:	e3e02000 	mvn	r2, #0
  a4:	e5c32000 	strb	r2, [r3]
  a8:	e3e02000 	mvn	r2, #0
  ac:	e5c32001 	strb	r2, [r3, #1]
  b0:	e3e02000 	mvn	r2, #0
  b4:	e5c32002 	strb	r2, [r3, #2]
  b8:	e3e02000 	mvn	r2, #0
  bc:	e5c32003 	strb	r2, [r3, #3]
  c0:	e59f3234 	ldr	r3, [pc, #564]	; 2fc <spiderParaInit+0x2fc>
  c4:	e7943003 	ldr	r3, [r4, r3]
  c8:	e5933000 	ldr	r3, [r3]
  cc:	e3e02000 	mvn	r2, #0
  d0:	e5c32008 	strb	r2, [r3, #8]
  d4:	e3e02000 	mvn	r2, #0
  d8:	e5c32009 	strb	r2, [r3, #9]
  dc:	e3e02000 	mvn	r2, #0
  e0:	e5c3200a 	strb	r2, [r3, #10]
  e4:	e3e02000 	mvn	r2, #0
  e8:	e5c3200b 	strb	r2, [r3, #11]
  ec:	e59f3208 	ldr	r3, [pc, #520]	; 2fc <spiderParaInit+0x2fc>
  f0:	e7943003 	ldr	r3, [r4, r3]
  f4:	e5933000 	ldr	r3, [r3]
  f8:	e3e02000 	mvn	r2, #0
  fc:	e5c32010 	strb	r2, [r3, #16]
 100:	e3e02000 	mvn	r2, #0
 104:	e5c32011 	strb	r2, [r3, #17]
 108:	e3e02000 	mvn	r2, #0
 10c:	e5c32012 	strb	r2, [r3, #18]
 110:	e3e02000 	mvn	r2, #0
 114:	e5c32013 	strb	r2, [r3, #19]
 118:	e59f31dc 	ldr	r3, [pc, #476]	; 2fc <spiderParaInit+0x2fc>
 11c:	e7943003 	ldr	r3, [r4, r3]
 120:	e5933000 	ldr	r3, [r3]
 124:	e3e02000 	mvn	r2, #0
 128:	e5c32018 	strb	r2, [r3, #24]
 12c:	e3e02000 	mvn	r2, #0
 130:	e5c32019 	strb	r2, [r3, #25]
 134:	e3e02000 	mvn	r2, #0
 138:	e5c3201a 	strb	r2, [r3, #26]
 13c:	e3e02000 	mvn	r2, #0
 140:	e5c3201b 	strb	r2, [r3, #27]
 144:	e59f31b0 	ldr	r3, [pc, #432]	; 2fc <spiderParaInit+0x2fc>
 148:	e7943003 	ldr	r3, [r4, r3]
 14c:	e5933000 	ldr	r3, [r3]
 150:	e3a02000 	mov	r2, #0
 154:	e5c32020 	strb	r2, [r3, #32]
 158:	e3a02000 	mov	r2, #0
 15c:	e5c32021 	strb	r2, [r3, #33]	; 0x21
 160:	e3a02000 	mov	r2, #0
 164:	e5c32022 	strb	r2, [r3, #34]	; 0x22
 168:	e3a02000 	mov	r2, #0
 16c:	e5c32023 	strb	r2, [r3, #35]	; 0x23
 170:	e59f3184 	ldr	r3, [pc, #388]	; 2fc <spiderParaInit+0x2fc>
 174:	e7943003 	ldr	r3, [r4, r3]
 178:	e5933000 	ldr	r3, [r3]
 17c:	e3a02000 	mov	r2, #0
 180:	e5c32024 	strb	r2, [r3, #36]	; 0x24
 184:	e3a02000 	mov	r2, #0
 188:	e5c32025 	strb	r2, [r3, #37]	; 0x25
 18c:	e3a02000 	mov	r2, #0
 190:	e5c32026 	strb	r2, [r3, #38]	; 0x26
 194:	e3a02000 	mov	r2, #0
 198:	e5c32027 	strb	r2, [r3, #39]	; 0x27
 19c:	e59f3158 	ldr	r3, [pc, #344]	; 2fc <spiderParaInit+0x2fc>
 1a0:	e7943003 	ldr	r3, [r4, r3]
 1a4:	e5933000 	ldr	r3, [r3]
 1a8:	e3e02000 	mvn	r2, #0
 1ac:	e5c32028 	strb	r2, [r3, #40]	; 0x28
 1b0:	e3e02000 	mvn	r2, #0
 1b4:	e5c32029 	strb	r2, [r3, #41]	; 0x29
 1b8:	e3e02000 	mvn	r2, #0
 1bc:	e5c3202a 	strb	r2, [r3, #42]	; 0x2a
 1c0:	e3e02000 	mvn	r2, #0
 1c4:	e5c3202b 	strb	r2, [r3, #43]	; 0x2b
 1c8:	e59f312c 	ldr	r3, [pc, #300]	; 2fc <spiderParaInit+0x2fc>
 1cc:	e7943003 	ldr	r3, [r4, r3]
 1d0:	e5933000 	ldr	r3, [r3]
 1d4:	e3e02000 	mvn	r2, #0
 1d8:	e5c32030 	strb	r2, [r3, #48]	; 0x30
 1dc:	e3e02000 	mvn	r2, #0
 1e0:	e5c32031 	strb	r2, [r3, #49]	; 0x31
 1e4:	e3e02000 	mvn	r2, #0
 1e8:	e5c32032 	strb	r2, [r3, #50]	; 0x32
 1ec:	e3e02000 	mvn	r2, #0
 1f0:	e5c32033 	strb	r2, [r3, #51]	; 0x33
 1f4:	e59f3100 	ldr	r3, [pc, #256]	; 2fc <spiderParaInit+0x2fc>
 1f8:	e7943003 	ldr	r3, [r4, r3]
 1fc:	e5933000 	ldr	r3, [r3]
 200:	e3e02000 	mvn	r2, #0
 204:	e5c32038 	strb	r2, [r3, #56]	; 0x38
 208:	e3e02000 	mvn	r2, #0
 20c:	e5c32039 	strb	r2, [r3, #57]	; 0x39
 210:	e3e02000 	mvn	r2, #0
 214:	e5c3203a 	strb	r2, [r3, #58]	; 0x3a
 218:	e3e02000 	mvn	r2, #0
 21c:	e5c3203b 	strb	r2, [r3, #59]	; 0x3b
 220:	e59f30d4 	ldr	r3, [pc, #212]	; 2fc <spiderParaInit+0x2fc>
 224:	e7943003 	ldr	r3, [r4, r3]
 228:	e5933000 	ldr	r3, [r3]
 22c:	e3e02000 	mvn	r2, #0
 230:	e5c32040 	strb	r2, [r3, #64]	; 0x40
 234:	e3e02000 	mvn	r2, #0
 238:	e5c32041 	strb	r2, [r3, #65]	; 0x41
 23c:	e3e02000 	mvn	r2, #0
 240:	e5c32042 	strb	r2, [r3, #66]	; 0x42
 244:	e3e02000 	mvn	r2, #0
 248:	e5c32043 	strb	r2, [r3, #67]	; 0x43
 24c:	e59f30a8 	ldr	r3, [pc, #168]	; 2fc <spiderParaInit+0x2fc>
 250:	e7943003 	ldr	r3, [r4, r3]
 254:	e5933000 	ldr	r3, [r3]
 258:	e3a02000 	mov	r2, #0
 25c:	e5c32048 	strb	r2, [r3, #72]	; 0x48
 260:	e3a02000 	mov	r2, #0
 264:	e5c32049 	strb	r2, [r3, #73]	; 0x49
 268:	e3a02000 	mov	r2, #0
 26c:	e5c3204a 	strb	r2, [r3, #74]	; 0x4a
 270:	e3a02000 	mov	r2, #0
 274:	e5c3204b 	strb	r2, [r3, #75]	; 0x4b
 278:	e59f307c 	ldr	r3, [pc, #124]	; 2fc <spiderParaInit+0x2fc>
 27c:	e7943003 	ldr	r3, [r4, r3]
 280:	e5933000 	ldr	r3, [r3]
 284:	e3a02000 	mov	r2, #0
 288:	e5c3204c 	strb	r2, [r3, #76]	; 0x4c
 28c:	e3a02000 	mov	r2, #0
 290:	e5c3204d 	strb	r2, [r3, #77]	; 0x4d
 294:	e3a02000 	mov	r2, #0
 298:	e5c3204e 	strb	r2, [r3, #78]	; 0x4e
 29c:	e3a02000 	mov	r2, #0
 2a0:	e5c3204f 	strb	r2, [r3, #79]	; 0x4f
 2a4:	e59f3050 	ldr	r3, [pc, #80]	; 2fc <spiderParaInit+0x2fc>
 2a8:	e7943003 	ldr	r3, [r4, r3]
 2ac:	e5933000 	ldr	r3, [r3]
 2b0:	e3a02000 	mov	r2, #0
 2b4:	e5c32050 	strb	r2, [r3, #80]	; 0x50
 2b8:	e3a02000 	mov	r2, #0
 2bc:	e5c32051 	strb	r2, [r3, #81]	; 0x51
 2c0:	e3a02000 	mov	r2, #0
 2c4:	e5c32052 	strb	r2, [r3, #82]	; 0x52
 2c8:	e3a02000 	mov	r2, #0
 2cc:	e5c32053 	strb	r2, [r3, #83]	; 0x53
 2d0:	ea000001 	b	2dc <spiderParaInit+0x2dc>
 2d4:	e51b0018 	ldr	r0, [fp, #-24]
 2d8:	ebfffffe 	bl	0 <spiderParaInit>
 2dc:	e3a03001 	mov	r3, #1
 2e0:	ea000000 	b	2e8 <spiderParaInit+0x2e8>
 2e4:	e3a03000 	mov	r3, #0
 2e8:	e1a00003 	mov	r0, r3
 2ec:	e24bd008 	sub	sp, fp, #8
 2f0:	e8bd8810 	pop	{r4, fp, pc}
 2f4:	000002d8 	.word	0x000002d8
 2f8:	0000046c 	.word	0x0000046c
 2fc:	00000000 	.word	0x00000000

Disassembly of section .text.urlPoolInit:

00000000 <urlPoolInit>:
   0:	e92d4810 	push	{r4, fp, lr}
   4:	e28db008 	add	fp, sp, #8
   8:	e24dd01c 	sub	sp, sp, #28
   c:	e50b0020 	str	r0, [fp, #-32]
  10:	e59f433c 	ldr	r4, [pc, #828]	; 354 <urlPoolInit+0x354>
  14:	e08f4004 	add	r4, pc, r4
  18:	e59f3338 	ldr	r3, [pc, #824]	; 358 <urlPoolInit+0x358>
  1c:	e7943003 	ldr	r3, [r4, r3]
  20:	e5933000 	ldr	r3, [r3]
  24:	e5d32050 	ldrb	r2, [r3, #80]	; 0x50
  28:	e5d31051 	ldrb	r1, [r3, #81]	; 0x51
  2c:	e1a01401 	lsl	r1, r1, #8
  30:	e1812002 	orr	r2, r1, r2
  34:	e5d31052 	ldrb	r1, [r3, #82]	; 0x52
  38:	e1a01801 	lsl	r1, r1, #16
  3c:	e1812002 	orr	r2, r1, r2
  40:	e5d33053 	ldrb	r3, [r3, #83]	; 0x53
  44:	e1a03c03 	lsl	r3, r3, #24
  48:	e1833002 	orr	r3, r3, r2
  4c:	e3530000 	cmp	r3, #0
  50:	1a000044 	bne	168 <urlPoolInit+0x168>
  54:	e3a00000 	mov	r0, #0
  58:	ebfffffe 	bl	0 <urlPoolInit>
  5c:	e1a03000 	mov	r3, r0
  60:	e51b0020 	ldr	r0, [fp, #-32]
  64:	e1a01003 	mov	r1, r3
  68:	e30f2ffc 	movw	r2, #65532	; 0xfffc
  6c:	e340200f 	movt	r2, #15
  70:	ebfffffe 	bl	0 <urlPoolInit>
  74:	e50b0014 	str	r0, [fp, #-20]
  78:	e51b3014 	ldr	r3, [fp, #-20]
  7c:	e3530000 	cmp	r3, #0
  80:	0a0000af 	beq	344 <urlPoolInit+0x344>
  84:	e51b3014 	ldr	r3, [fp, #-20]
  88:	e2832004 	add	r2, r3, #4
  8c:	e59f32c8 	ldr	r3, [pc, #712]	; 35c <urlPoolInit+0x35c>
  90:	e7943003 	ldr	r3, [r4, r3]
  94:	e5832000 	str	r2, [r3]
  98:	e59f32bc 	ldr	r3, [pc, #700]	; 35c <urlPoolInit+0x35c>
  9c:	e7943003 	ldr	r3, [r4, r3]
  a0:	e5933000 	ldr	r3, [r3]
  a4:	e30f2ff4 	movw	r2, #65524	; 0xfff4
  a8:	e340200f 	movt	r2, #15
  ac:	e3a01000 	mov	r1, #0
  b0:	e7c31002 	strb	r1, [r3, r2]
  b4:	e30f2ff5 	movw	r2, #65525	; 0xfff5
  b8:	e340200f 	movt	r2, #15
  bc:	e3a01000 	mov	r1, #0
  c0:	e7c31002 	strb	r1, [r3, r2]
  c4:	e30f2ff6 	movw	r2, #65526	; 0xfff6
  c8:	e340200f 	movt	r2, #15
  cc:	e3a01000 	mov	r1, #0
  d0:	e7c31002 	strb	r1, [r3, r2]
  d4:	e30f2ff7 	movw	r2, #65527	; 0xfff7
  d8:	e340200f 	movt	r2, #15
  dc:	e3a01000 	mov	r1, #0
  e0:	e7c31002 	strb	r1, [r3, r2]
  e4:	e59f3270 	ldr	r3, [pc, #624]	; 35c <urlPoolInit+0x35c>
  e8:	e7943003 	ldr	r3, [r4, r3]
  ec:	e5933000 	ldr	r3, [r3]
  f0:	e30f2ff8 	movw	r2, #65528	; 0xfff8
  f4:	e340200f 	movt	r2, #15
  f8:	e3a01000 	mov	r1, #0
  fc:	e7c31002 	strb	r1, [r3, r2]
 100:	e30f2ff9 	movw	r2, #65529	; 0xfff9
 104:	e340200f 	movt	r2, #15
 108:	e3a01000 	mov	r1, #0
 10c:	e7c31002 	strb	r1, [r3, r2]
 110:	e30f2ffa 	movw	r2, #65530	; 0xfffa
 114:	e340200f 	movt	r2, #15
 118:	e3a01000 	mov	r1, #0
 11c:	e7c31002 	strb	r1, [r3, r2]
 120:	e30f2ffb 	movw	r2, #65531	; 0xfffb
 124:	e340200f 	movt	r2, #15
 128:	e3a01000 	mov	r1, #0
 12c:	e7c31002 	strb	r1, [r3, r2]
 130:	e59f3220 	ldr	r3, [pc, #544]	; 358 <urlPoolInit+0x358>
 134:	e7943003 	ldr	r3, [r4, r3]
 138:	e5933000 	ldr	r3, [r3]
 13c:	e3a02000 	mov	r2, #0
 140:	e3822001 	orr	r2, r2, #1
 144:	e5c32050 	strb	r2, [r3, #80]	; 0x50
 148:	e3a02000 	mov	r2, #0
 14c:	e5c32051 	strb	r2, [r3, #81]	; 0x51
 150:	e3a02000 	mov	r2, #0
 154:	e5c32052 	strb	r2, [r3, #82]	; 0x52
 158:	e3a02000 	mov	r2, #0
 15c:	e5c32053 	strb	r2, [r3, #83]	; 0x53
 160:	e3a03001 	mov	r3, #1
 164:	ea000077 	b	348 <urlPoolInit+0x348>
 168:	e3a03000 	mov	r3, #0
 16c:	e50b301c 	str	r3, [fp, #-28]
 170:	ea00004b 	b	2a4 <urlPoolInit+0x2a4>
 174:	e51b001c 	ldr	r0, [fp, #-28]
 178:	ebfffffe 	bl	0 <urlPoolInit>
 17c:	e1a03000 	mov	r3, r0
 180:	e51b0020 	ldr	r0, [fp, #-32]
 184:	e1a01003 	mov	r1, r3
 188:	e30f2ffc 	movw	r2, #65532	; 0xfffc
 18c:	e340200f 	movt	r2, #15
 190:	ebfffffe 	bl	0 <urlPoolInit>
 194:	e50b0010 	str	r0, [fp, #-16]
 198:	e51b3010 	ldr	r3, [fp, #-16]
 19c:	e3530000 	cmp	r3, #0
 1a0:	0a000051 	beq	2ec <urlPoolInit+0x2ec>
 1a4:	e51b3010 	ldr	r3, [fp, #-16]
 1a8:	e5d32000 	ldrb	r2, [r3]
 1ac:	e5d31001 	ldrb	r1, [r3, #1]
 1b0:	e1a01401 	lsl	r1, r1, #8
 1b4:	e1812002 	orr	r2, r1, r2
 1b8:	e5d31002 	ldrb	r1, [r3, #2]
 1bc:	e1a01801 	lsl	r1, r1, #16
 1c0:	e1812002 	orr	r2, r1, r2
 1c4:	e5d33003 	ldrb	r3, [r3, #3]
 1c8:	e1a03c03 	lsl	r3, r3, #24
 1cc:	e1833002 	orr	r3, r3, r2
 1d0:	e1a02003 	mov	r2, r3
 1d4:	e3053678 	movw	r3, #22136	; 0x5678
 1d8:	e3413234 	movt	r3, #4660	; 0x1234
 1dc:	e1520003 	cmp	r2, r3
 1e0:	1a000043 	bne	2f4 <urlPoolInit+0x2f4>
 1e4:	e51b301c 	ldr	r3, [fp, #-28]
 1e8:	e3530000 	cmp	r3, #0
 1ec:	1a000009 	bne	218 <urlPoolInit+0x218>
 1f0:	e51b3010 	ldr	r3, [fp, #-16]
 1f4:	e2832004 	add	r2, r3, #4
 1f8:	e59f315c 	ldr	r3, [pc, #348]	; 35c <urlPoolInit+0x35c>
 1fc:	e7943003 	ldr	r3, [r4, r3]
 200:	e5832000 	str	r2, [r3]
 204:	e59f3150 	ldr	r3, [pc, #336]	; 35c <urlPoolInit+0x35c>
 208:	e7943003 	ldr	r3, [r4, r3]
 20c:	e5933000 	ldr	r3, [r3]
 210:	e50b3018 	str	r3, [fp, #-24]
 214:	ea00001f 	b	298 <urlPoolInit+0x298>
 218:	e51b3010 	ldr	r3, [fp, #-16]
 21c:	e2832004 	add	r2, r3, #4
 220:	e51b3018 	ldr	r3, [fp, #-24]
 224:	e6ef0072 	uxtb	r0, r2
 228:	e30f1ff8 	movw	r1, #65528	; 0xfff8
 22c:	e340100f 	movt	r1, #15
 230:	e3a0c000 	mov	ip, #0
 234:	e18c0000 	orr	r0, ip, r0
 238:	e7c30001 	strb	r0, [r3, r1]
 23c:	e1a01422 	lsr	r1, r2, #8
 240:	e6ef0071 	uxtb	r0, r1
 244:	e30f1ff9 	movw	r1, #65529	; 0xfff9
 248:	e340100f 	movt	r1, #15
 24c:	e3a0c000 	mov	ip, #0
 250:	e18c0000 	orr	r0, ip, r0
 254:	e7c30001 	strb	r0, [r3, r1]
 258:	e1a01822 	lsr	r1, r2, #16
 25c:	e6ef0071 	uxtb	r0, r1
 260:	e30f1ffa 	movw	r1, #65530	; 0xfffa
 264:	e340100f 	movt	r1, #15
 268:	e3a0c000 	mov	ip, #0
 26c:	e18c0000 	orr	r0, ip, r0
 270:	e7c30001 	strb	r0, [r3, r1]
 274:	e1a01c22 	lsr	r1, r2, #24
 278:	e30f2ffb 	movw	r2, #65531	; 0xfffb
 27c:	e340200f 	movt	r2, #15
 280:	e3a00000 	mov	r0, #0
 284:	e1801001 	orr	r1, r0, r1
 288:	e7c31002 	strb	r1, [r3, r2]
 28c:	e51b3010 	ldr	r3, [fp, #-16]
 290:	e2833004 	add	r3, r3, #4
 294:	e50b3018 	str	r3, [fp, #-24]
 298:	e51b301c 	ldr	r3, [fp, #-28]
 29c:	e2833001 	add	r3, r3, #1
 2a0:	e50b301c 	str	r3, [fp, #-28]
 2a4:	e59f30ac 	ldr	r3, [pc, #172]	; 358 <urlPoolInit+0x358>
 2a8:	e7943003 	ldr	r3, [r4, r3]
 2ac:	e5933000 	ldr	r3, [r3]
 2b0:	e5d32050 	ldrb	r2, [r3, #80]	; 0x50
 2b4:	e5d31051 	ldrb	r1, [r3, #81]	; 0x51
 2b8:	e1a01401 	lsl	r1, r1, #8
 2bc:	e1812002 	orr	r2, r1, r2
 2c0:	e5d31052 	ldrb	r1, [r3, #82]	; 0x52
 2c4:	e1a01801 	lsl	r1, r1, #16
 2c8:	e1812002 	orr	r2, r1, r2
 2cc:	e5d33053 	ldrb	r3, [r3, #83]	; 0x53
 2d0:	e1a03c03 	lsl	r3, r3, #24
 2d4:	e1833002 	orr	r3, r3, r2
 2d8:	e1a02003 	mov	r2, r3
 2dc:	e51b301c 	ldr	r3, [fp, #-28]
 2e0:	e1520003 	cmp	r2, r3
 2e4:	8affffa2 	bhi	174 <urlPoolInit+0x174>
 2e8:	ea000002 	b	2f8 <urlPoolInit+0x2f8>
 2ec:	e1a00000 	nop			; (mov r0, r0)
 2f0:	ea000000 	b	2f8 <urlPoolInit+0x2f8>
 2f4:	e1a00000 	nop			; (mov r0, r0)
 2f8:	e59f3058 	ldr	r3, [pc, #88]	; 358 <urlPoolInit+0x358>
 2fc:	e7943003 	ldr	r3, [r4, r3]
 300:	e5933000 	ldr	r3, [r3]
 304:	e5d32050 	ldrb	r2, [r3, #80]	; 0x50
 308:	e5d31051 	ldrb	r1, [r3, #81]	; 0x51
 30c:	e1a01401 	lsl	r1, r1, #8
 310:	e1812002 	orr	r2, r1, r2
 314:	e5d31052 	ldrb	r1, [r3, #82]	; 0x52
 318:	e1a01801 	lsl	r1, r1, #16
 31c:	e1812002 	orr	r2, r1, r2
 320:	e5d33053 	ldrb	r3, [r3, #83]	; 0x53
 324:	e1a03c03 	lsl	r3, r3, #24
 328:	e1833002 	orr	r3, r3, r2
 32c:	e1a02003 	mov	r2, r3
 330:	e51b301c 	ldr	r3, [fp, #-28]
 334:	e1520003 	cmp	r2, r3
 338:	1a000001 	bne	344 <urlPoolInit+0x344>
 33c:	e3a03001 	mov	r3, #1
 340:	ea000000 	b	348 <urlPoolInit+0x348>
 344:	e3a03000 	mov	r3, #0
 348:	e1a00003 	mov	r0, r3
 34c:	e24bd008 	sub	sp, fp, #8
 350:	e8bd8810 	pop	{r4, fp, pc}
 354:	00000338 	.word	0x00000338
	...

Disassembly of section .text.Java_com_UltimateImgSpider_SpiderService_jniSpiderInit:

00000000 <Java_com_UltimateImgSpider_SpiderService_jniSpiderInit>:
   0:	e92d4800 	.word	0xe92d4800
   4:	e28db004 	add	fp, sp, #4
   8:	e24dd008 	sub	sp, sp, #8
   c:	e50b0008 	str	r0, [fp, #-8]
  10:	e50b100c 	str	r1, [fp, #-12]
  14:	e59f3058 	ldr	r3, [pc, #88]	; 74 <Java_com_UltimateImgSpider_SpiderService_jniSpiderInit+0x74>
  18:	e08f3003 	add	r3, pc, r3
  1c:	e59f2054 	ldr	r2, [pc, #84]	; 78 <Java_com_UltimateImgSpider_SpiderService_jniSpiderInit+0x78>
  20:	e7933002 	ldr	r3, [r3, r2]
  24:	e51b200c 	ldr	r2, [fp, #-12]
  28:	e5832000 	str	r2, [r3]
  2c:	e51b0008 	ldr	r0, [fp, #-8]
  30:	ebfffffe 	bl	0 <Java_com_UltimateImgSpider_SpiderService_jniSpiderInit>
  34:	e1a03000 	mov	r3, r0
  38:	e3530000 	cmp	r3, #0
  3c:	1a000001 	bne	48 <Java_com_UltimateImgSpider_SpiderService_jniSpiderInit+0x48>
  40:	e3a03000 	mov	r3, #0
  44:	ea000007 	b	68 <Java_com_UltimateImgSpider_SpiderService_jniSpiderInit+0x68>
  48:	e51b0008 	ldr	r0, [fp, #-8]
  4c:	ebfffffe 	bl	0 <Java_com_UltimateImgSpider_SpiderService_jniSpiderInit>
  50:	e1a03000 	mov	r3, r0
  54:	e3530000 	cmp	r3, #0
  58:	1a000001 	bne	64 <Java_com_UltimateImgSpider_SpiderService_jniSpiderInit+0x64>
  5c:	e3a03000 	mov	r3, #0
  60:	ea000000 	b	68 <Java_com_UltimateImgSpider_SpiderService_jniSpiderInit+0x68>
  64:	e3a03001 	mov	r3, #1
  68:	e1a00003 	mov	r0, r3
  6c:	e24bd004 	sub	sp, fp, #4
  70:	e8bd8800 	pop	{fp, pc}
  74:	00000054 	.word	0x00000054
  78:	00000000 	.word	0x00000000

Disassembly of section .text.rbUrlTreeFixup:

00000000 <rbUrlTreeFixup>:
   0:	e92d4800 	push	{fp, lr}
   4:	e28db004 	add	fp, sp, #4
   8:	e24dd018 	sub	sp, sp, #24
   c:	e50b0018 	str	r0, [fp, #-24]
  10:	e50b101c 	str	r1, [fp, #-28]
  14:	ea000072 	b	1e4 <rbUrlTreeFixup+0x1e4>
  18:	e51b301c 	ldr	r3, [fp, #-28]
  1c:	e2833024 	add	r3, r3, #36	; 0x24
  20:	e1a00003 	mov	r0, r3
  24:	ebfffffe 	bl	0 <rbUrlTreeFixup>
  28:	e50b000c 	str	r0, [fp, #-12]
  2c:	e51b300c 	ldr	r3, [fp, #-12]
  30:	e2833024 	add	r3, r3, #36	; 0x24
  34:	e1a00003 	mov	r0, r3
  38:	ebfffffe 	bl	0 <rbUrlTreeFixup>
  3c:	e50b0008 	str	r0, [fp, #-8]
  40:	e51b3008 	ldr	r3, [fp, #-8]
  44:	e2833014 	add	r3, r3, #20
  48:	e1a00003 	mov	r0, r3
  4c:	ebfffffe 	bl	0 <rbUrlTreeFixup>
  50:	e1a02000 	mov	r2, r0
  54:	e51b300c 	ldr	r3, [fp, #-12]
  58:	e1520003 	cmp	r2, r3
  5c:	1a00000a 	bne	8c <rbUrlTreeFixup+0x8c>
  60:	e51b3008 	ldr	r3, [fp, #-8]
  64:	e283301c 	add	r3, r3, #28
  68:	e1a00003 	mov	r0, r3
  6c:	ebfffffe 	bl	0 <rbUrlTreeFixup>
  70:	e50b0014 	str	r0, [fp, #-20]
  74:	e51b300c 	ldr	r3, [fp, #-12]
  78:	e2833014 	add	r3, r3, #20
  7c:	e1a00003 	mov	r0, r3
  80:	ebfffffe 	bl	0 <rbUrlTreeFixup>
  84:	e50b0010 	str	r0, [fp, #-16]
  88:	ea000009 	b	b4 <rbUrlTreeFixup+0xb4>
  8c:	e51b3008 	ldr	r3, [fp, #-8]
  90:	e2833014 	add	r3, r3, #20
  94:	e1a00003 	mov	r0, r3
  98:	ebfffffe 	bl	0 <rbUrlTreeFixup>
  9c:	e50b0014 	str	r0, [fp, #-20]
  a0:	e51b300c 	ldr	r3, [fp, #-12]
  a4:	e283301c 	add	r3, r3, #28
  a8:	e1a00003 	mov	r0, r3
  ac:	ebfffffe 	bl	0 <rbUrlTreeFixup>
  b0:	e50b0010 	str	r0, [fp, #-16]
  b4:	e51b3014 	ldr	r3, [fp, #-20]
  b8:	e5d3202c 	ldrb	r2, [r3, #44]	; 0x2c
  bc:	e5d3102d 	ldrb	r1, [r3, #45]	; 0x2d
  c0:	e1a01401 	lsl	r1, r1, #8
  c4:	e1812002 	orr	r2, r1, r2
  c8:	e5d3102e 	ldrb	r1, [r3, #46]	; 0x2e
  cc:	e1a01801 	lsl	r1, r1, #16
  d0:	e1812002 	orr	r2, r1, r2
  d4:	e5d3302f 	ldrb	r3, [r3, #47]	; 0x2f
  d8:	e1a03c03 	lsl	r3, r3, #24
  dc:	e1833002 	orr	r3, r3, r2
  e0:	e3530000 	cmp	r3, #0
  e4:	1a00001f 	bne	168 <rbUrlTreeFixup+0x168>
  e8:	e51b300c 	ldr	r3, [fp, #-12]
  ec:	e3a02000 	mov	r2, #0
  f0:	e3822001 	orr	r2, r2, #1
  f4:	e5c3202c 	strb	r2, [r3, #44]	; 0x2c
  f8:	e3a02000 	mov	r2, #0
  fc:	e5c3202d 	strb	r2, [r3, #45]	; 0x2d
 100:	e3a02000 	mov	r2, #0
 104:	e5c3202e 	strb	r2, [r3, #46]	; 0x2e
 108:	e3a02000 	mov	r2, #0
 10c:	e5c3202f 	strb	r2, [r3, #47]	; 0x2f
 110:	e51b3014 	ldr	r3, [fp, #-20]
 114:	e3a02000 	mov	r2, #0
 118:	e3822001 	orr	r2, r2, #1
 11c:	e5c3202c 	strb	r2, [r3, #44]	; 0x2c
 120:	e3a02000 	mov	r2, #0
 124:	e5c3202d 	strb	r2, [r3, #45]	; 0x2d
 128:	e3a02000 	mov	r2, #0
 12c:	e5c3202e 	strb	r2, [r3, #46]	; 0x2e
 130:	e3a02000 	mov	r2, #0
 134:	e5c3202f 	strb	r2, [r3, #47]	; 0x2f
 138:	e51b3008 	ldr	r3, [fp, #-8]
 13c:	e3a02000 	mov	r2, #0
 140:	e5c3202c 	strb	r2, [r3, #44]	; 0x2c
 144:	e3a02000 	mov	r2, #0
 148:	e5c3202d 	strb	r2, [r3, #45]	; 0x2d
 14c:	e3a02000 	mov	r2, #0
 150:	e5c3202e 	strb	r2, [r3, #46]	; 0x2e
 154:	e3a02000 	mov	r2, #0
 158:	e5c3202f 	strb	r2, [r3, #47]	; 0x2f
 15c:	e51b3008 	ldr	r3, [fp, #-8]
 160:	e50b301c 	str	r3, [fp, #-28]
 164:	ea000008 	b	18c <rbUrlTreeFixup+0x18c>
 168:	e51b201c 	ldr	r2, [fp, #-28]
 16c:	e51b3010 	ldr	r3, [fp, #-16]
 170:	e1520003 	cmp	r2, r3
 174:	1a000004 	bne	18c <rbUrlTreeFixup+0x18c>
 178:	e51b300c 	ldr	r3, [fp, #-12]
 17c:	e50b301c 	str	r3, [fp, #-28]
 180:	e51b0018 	ldr	r0, [fp, #-24]
 184:	e51b101c 	ldr	r1, [fp, #-28]
 188:	ebfffffe 	bl	0 <rbUrlTreeFixup>
 18c:	e51b300c 	ldr	r3, [fp, #-12]
 190:	e3a02000 	mov	r2, #0
 194:	e3822001 	orr	r2, r2, #1
 198:	e5c3202c 	strb	r2, [r3, #44]	; 0x2c
 19c:	e3a02000 	mov	r2, #0
 1a0:	e5c3202d 	strb	r2, [r3, #45]	; 0x2d
 1a4:	e3a02000 	mov	r2, #0
 1a8:	e5c3202e 	strb	r2, [r3, #46]	; 0x2e
 1ac:	e3a02000 	mov	r2, #0
 1b0:	e5c3202f 	strb	r2, [r3, #47]	; 0x2f
 1b4:	e51b3008 	ldr	r3, [fp, #-8]
 1b8:	e3a02000 	mov	r2, #0
 1bc:	e5c3202c 	strb	r2, [r3, #44]	; 0x2c
 1c0:	e3a02000 	mov	r2, #0
 1c4:	e5c3202d 	strb	r2, [r3, #45]	; 0x2d
 1c8:	e3a02000 	mov	r2, #0
 1cc:	e5c3202e 	strb	r2, [r3, #46]	; 0x2e
 1d0:	e3a02000 	mov	r2, #0
 1d4:	e5c3202f 	strb	r2, [r3, #47]	; 0x2f
 1d8:	e51b0018 	ldr	r0, [fp, #-24]
 1dc:	e51b1008 	ldr	r1, [fp, #-8]
 1e0:	ebfffffe 	bl	0 <rbUrlTreeFixup>
 1e4:	e51b301c 	ldr	r3, [fp, #-28]
 1e8:	e2833024 	add	r3, r3, #36	; 0x24
 1ec:	e1a00003 	mov	r0, r3
 1f0:	ebfffffe 	bl	0 <rbUrlTreeFixup>
 1f4:	e1a03000 	mov	r3, r0
 1f8:	e5d3202c 	ldrb	r2, [r3, #44]	; 0x2c
 1fc:	e5d3102d 	ldrb	r1, [r3, #45]	; 0x2d
 200:	e1a01401 	lsl	r1, r1, #8
 204:	e1812002 	orr	r2, r1, r2
 208:	e5d3102e 	ldrb	r1, [r3, #46]	; 0x2e
 20c:	e1a01801 	lsl	r1, r1, #16
 210:	e1812002 	orr	r2, r1, r2
 214:	e5d3302f 	ldrb	r3, [r3, #47]	; 0x2f
 218:	e1a03c03 	lsl	r3, r3, #24
 21c:	e1833002 	orr	r3, r3, r2
 220:	e3530000 	cmp	r3, #0
 224:	0affff7b 	beq	18 <rbUrlTreeFixup+0x18>
 228:	e51b3018 	ldr	r3, [fp, #-24]
 22c:	e2833010 	add	r3, r3, #16
 230:	e1a00003 	mov	r0, r3
 234:	ebfffffe 	bl	0 <rbUrlTreeFixup>
 238:	e1a03000 	mov	r3, r0
 23c:	e3a02000 	mov	r2, #0
 240:	e3822001 	orr	r2, r2, #1
 244:	e5c3202c 	strb	r2, [r3, #44]	; 0x2c
 248:	e3a02000 	mov	r2, #0
 24c:	e5c3202d 	strb	r2, [r3, #45]	; 0x2d
 250:	e3a02000 	mov	r2, #0
 254:	e5c3202e 	strb	r2, [r3, #46]	; 0x2e
 258:	e3a02000 	mov	r2, #0
 25c:	e5c3202f 	strb	r2, [r3, #47]	; 0x2f
 260:	e24bd004 	sub	sp, fp, #4
 264:	e8bd8800 	pop	{fp, pc}

Disassembly of section .text.urlTreeInsert:

00000000 <urlTreeInsert>:
   0:	e92d4800 	push	{fp, lr}
   4:	e28db004 	add	fp, sp, #4
   8:	e24dd020 	sub	sp, sp, #32
   c:	e50b0018 	str	r0, [fp, #-24]
  10:	e50b101c 	str	r1, [fp, #-28]
  14:	e50b2020 	str	r2, [fp, #-32]
  18:	e51b301c 	ldr	r3, [fp, #-28]
  1c:	e2833010 	add	r3, r3, #16
  20:	e50b3010 	str	r3, [fp, #-16]
  24:	e51b0010 	ldr	r0, [fp, #-16]
  28:	ebfffffe 	bl	0 <urlTreeInsert>
  2c:	e50b000c 	str	r0, [fp, #-12]
  30:	e3a03000 	mov	r3, #0
  34:	e50b3008 	str	r3, [fp, #-8]
  38:	e51b0020 	ldr	r0, [fp, #-32]
  3c:	ebfffffe 	bl	0 <strlen>
  40:	e1a03000 	mov	r3, r0
  44:	e14b31b2 	strh	r3, [fp, #-18]	; 0xffffffee
  48:	ea000041 	b	154 <urlTreeInsert+0x154>
  4c:	e51b300c 	ldr	r3, [fp, #-12]
  50:	e5d32000 	ldrb	r2, [r3]
  54:	e5d3c001 	ldrb	ip, [r3, #1]
  58:	e1a0c40c 	lsl	ip, ip, #8
  5c:	e18c2002 	orr	r2, ip, r2
  60:	e5d3c002 	ldrb	ip, [r3, #2]
  64:	e1a0c80c 	lsl	ip, ip, #16
  68:	e18c2002 	orr	r2, ip, r2
  6c:	e5d3c003 	ldrb	ip, [r3, #3]
  70:	e1a0cc0c 	lsl	ip, ip, #24
  74:	e18c2002 	orr	r2, ip, r2
  78:	e1a00002 	mov	r0, r2
  7c:	e5d32004 	ldrb	r2, [r3, #4]
  80:	e5d3c005 	ldrb	ip, [r3, #5]
  84:	e1a0c40c 	lsl	ip, ip, #8
  88:	e18c2002 	orr	r2, ip, r2
  8c:	e5d3c006 	ldrb	ip, [r3, #6]
  90:	e1a0c80c 	lsl	ip, ip, #16
  94:	e18c2002 	orr	r2, ip, r2
  98:	e5d33007 	ldrb	r3, [r3, #7]
  9c:	e1a03c03 	lsl	r3, r3, #24
  a0:	e1833002 	orr	r3, r3, r2
  a4:	e1a01003 	mov	r1, r3
  a8:	e1cb20d4 	ldrd	r2, [fp, #4]
  ac:	e1510003 	cmp	r1, r3
  b0:	01500002 	cmpeq	r0, r2
  b4:	2a000003 	bcs	c8 <urlTreeInsert+0xc8>
  b8:	e51b300c 	ldr	r3, [fp, #-12]
  bc:	e283301c 	add	r3, r3, #28
  c0:	e50b3010 	str	r3, [fp, #-16]
  c4:	ea00001d 	b	140 <urlTreeInsert+0x140>
  c8:	e51b300c 	ldr	r3, [fp, #-12]
  cc:	e5d32000 	ldrb	r2, [r3]
  d0:	e5d3c001 	ldrb	ip, [r3, #1]
  d4:	e1a0c40c 	lsl	ip, ip, #8
  d8:	e18c2002 	orr	r2, ip, r2
  dc:	e5d3c002 	ldrb	ip, [r3, #2]
  e0:	e1a0c80c 	lsl	ip, ip, #16
  e4:	e18c2002 	orr	r2, ip, r2
  e8:	e5d3c003 	ldrb	ip, [r3, #3]
  ec:	e1a0cc0c 	lsl	ip, ip, #24
  f0:	e18c2002 	orr	r2, ip, r2
  f4:	e1a00002 	mov	r0, r2
  f8:	e5d32004 	ldrb	r2, [r3, #4]
  fc:	e5d3c005 	ldrb	ip, [r3, #5]
 100:	e1a0c40c 	lsl	ip, ip, #8
 104:	e18c2002 	orr	r2, ip, r2
 108:	e5d3c006 	ldrb	ip, [r3, #6]
 10c:	e1a0c80c 	lsl	ip, ip, #16
 110:	e18c2002 	orr	r2, ip, r2
 114:	e5d33007 	ldrb	r3, [r3, #7]
 118:	e1a03c03 	lsl	r3, r3, #24
 11c:	e1833002 	orr	r3, r3, r2
 120:	e1a01003 	mov	r1, r3
 124:	e1cb20d4 	ldrd	r2, [fp, #4]
 128:	e1530001 	cmp	r3, r1
 12c:	01520000 	cmpeq	r2, r0
 130:	2a0000bf 	bcs	434 <urlTreeInsert+0x434>
 134:	e51b300c 	ldr	r3, [fp, #-12]
 138:	e2833014 	add	r3, r3, #20
 13c:	e50b3010 	str	r3, [fp, #-16]
 140:	e51b300c 	ldr	r3, [fp, #-12]
 144:	e50b3008 	str	r3, [fp, #-8]
 148:	e51b0010 	ldr	r0, [fp, #-16]
 14c:	ebfffffe 	bl	0 <urlTreeInsert>
 150:	e50b000c 	str	r0, [fp, #-12]
 154:	e51b300c 	ldr	r3, [fp, #-12]
 158:	e3530000 	cmp	r3, #0
 15c:	1affffba 	bne	4c <urlTreeInsert+0x4c>
 160:	e15b31b2 	ldrh	r3, [fp, #-18]	; 0xffffffee
 164:	e2833001 	add	r3, r3, #1
 168:	e51b0018 	ldr	r0, [fp, #-24]
 16c:	e1a01003 	mov	r1, r3
 170:	e51b2010 	ldr	r2, [fp, #-16]
 174:	ebfffffe 	bl	0 <urlTreeInsert>
 178:	e50b000c 	str	r0, [fp, #-12]
 17c:	e51b300c 	ldr	r3, [fp, #-12]
 180:	e3530000 	cmp	r3, #0
 184:	0a0000ab 	beq	438 <urlTreeInsert+0x438>
 188:	e51b300c 	ldr	r3, [fp, #-12]
 18c:	e2833030 	add	r3, r3, #48	; 0x30
 190:	e1a00003 	mov	r0, r3
 194:	e51b1020 	ldr	r1, [fp, #-32]
 198:	ebfffffe 	bl	0 <strcpy>
 19c:	e51b300c 	ldr	r3, [fp, #-12]
 1a0:	e5db2004 	ldrb	r2, [fp, #4]
 1a4:	e3a01000 	mov	r1, #0
 1a8:	e1812002 	orr	r2, r1, r2
 1ac:	e5c32000 	strb	r2, [r3]
 1b0:	e5db2005 	ldrb	r2, [fp, #5]
 1b4:	e3a01000 	mov	r1, #0
 1b8:	e1812002 	orr	r2, r1, r2
 1bc:	e5c32001 	strb	r2, [r3, #1]
 1c0:	e5db2006 	ldrb	r2, [fp, #6]
 1c4:	e3a01000 	mov	r1, #0
 1c8:	e1812002 	orr	r2, r1, r2
 1cc:	e5c32002 	strb	r2, [r3, #2]
 1d0:	e5db2007 	ldrb	r2, [fp, #7]
 1d4:	e3a01000 	mov	r1, #0
 1d8:	e1812002 	orr	r2, r1, r2
 1dc:	e5c32003 	strb	r2, [r3, #3]
 1e0:	e5db2008 	ldrb	r2, [fp, #8]
 1e4:	e3a01000 	mov	r1, #0
 1e8:	e1812002 	orr	r2, r1, r2
 1ec:	e5c32004 	strb	r2, [r3, #4]
 1f0:	e5db2009 	ldrb	r2, [fp, #9]
 1f4:	e3a01000 	mov	r1, #0
 1f8:	e1812002 	orr	r2, r1, r2
 1fc:	e5c32005 	strb	r2, [r3, #5]
 200:	e5db200a 	ldrb	r2, [fp, #10]
 204:	e3a01000 	mov	r1, #0
 208:	e1812002 	orr	r2, r1, r2
 20c:	e5c32006 	strb	r2, [r3, #6]
 210:	e5db200b 	ldrb	r2, [fp, #11]
 214:	e3a01000 	mov	r1, #0
 218:	e1812002 	orr	r2, r1, r2
 21c:	e5c32007 	strb	r2, [r3, #7]
 220:	e51b300c 	ldr	r3, [fp, #-12]
 224:	e3a02000 	mov	r2, #0
 228:	e5c32008 	strb	r2, [r3, #8]
 22c:	e3a02000 	mov	r2, #0
 230:	e5c32009 	strb	r2, [r3, #9]
 234:	e51b300c 	ldr	r3, [fp, #-12]
 238:	e55b2012 	ldrb	r2, [fp, #-18]
 23c:	e3a01000 	mov	r1, #0
 240:	e1812002 	orr	r2, r1, r2
 244:	e5c3200a 	strb	r2, [r3, #10]
 248:	e55b2011 	ldrb	r2, [fp, #-17]
 24c:	e3a01000 	mov	r1, #0
 250:	e1812002 	orr	r2, r1, r2
 254:	e5c3200b 	strb	r2, [r3, #11]
 258:	e51b300c 	ldr	r3, [fp, #-12]
 25c:	e3e02000 	mvn	r2, #0
 260:	e5c32014 	strb	r2, [r3, #20]
 264:	e3e02000 	mvn	r2, #0
 268:	e5c32015 	strb	r2, [r3, #21]
 26c:	e3e02000 	mvn	r2, #0
 270:	e5c32016 	strb	r2, [r3, #22]
 274:	e3e02000 	mvn	r2, #0
 278:	e5c32017 	strb	r2, [r3, #23]
 27c:	e51b300c 	ldr	r3, [fp, #-12]
 280:	e3e02000 	mvn	r2, #0
 284:	e5c3201c 	strb	r2, [r3, #28]
 288:	e3e02000 	mvn	r2, #0
 28c:	e5c3201d 	strb	r2, [r3, #29]
 290:	e3e02000 	mvn	r2, #0
 294:	e5c3201e 	strb	r2, [r3, #30]
 298:	e3e02000 	mvn	r2, #0
 29c:	e5c3201f 	strb	r2, [r3, #31]
 2a0:	e51b300c 	ldr	r3, [fp, #-12]
 2a4:	e2833024 	add	r3, r3, #36	; 0x24
 2a8:	e51b0008 	ldr	r0, [fp, #-8]
 2ac:	e1a01003 	mov	r1, r3
 2b0:	ebfffffe 	bl	0 <urlTreeInsert>
 2b4:	e51b3008 	ldr	r3, [fp, #-8]
 2b8:	e3530000 	cmp	r3, #0
 2bc:	1a00000a 	bne	2ec <urlTreeInsert+0x2ec>
 2c0:	e51b300c 	ldr	r3, [fp, #-12]
 2c4:	e3a02000 	mov	r2, #0
 2c8:	e3822001 	orr	r2, r2, #1
 2cc:	e5c3202c 	strb	r2, [r3, #44]	; 0x2c
 2d0:	e3a02000 	mov	r2, #0
 2d4:	e5c3202d 	strb	r2, [r3, #45]	; 0x2d
 2d8:	e3a02000 	mov	r2, #0
 2dc:	e5c3202e 	strb	r2, [r3, #46]	; 0x2e
 2e0:	e3a02000 	mov	r2, #0
 2e4:	e5c3202f 	strb	r2, [r3, #47]	; 0x2f
 2e8:	ea000012 	b	338 <urlTreeInsert+0x338>
 2ec:	e51b300c 	ldr	r3, [fp, #-12]
 2f0:	e3a02000 	mov	r2, #0
 2f4:	e5c3202c 	strb	r2, [r3, #44]	; 0x2c
 2f8:	e3a02000 	mov	r2, #0
 2fc:	e5c3202d 	strb	r2, [r3, #45]	; 0x2d
 300:	e3a02000 	mov	r2, #0
 304:	e5c3202e 	strb	r2, [r3, #46]	; 0x2e
 308:	e3a02000 	mov	r2, #0
 30c:	e5c3202f 	strb	r2, [r3, #47]	; 0x2f
 310:	e51b3008 	ldr	r3, [fp, #-8]
 314:	e2833024 	add	r3, r3, #36	; 0x24
 318:	e1a00003 	mov	r0, r3
 31c:	ebfffffe 	bl	0 <urlTreeInsert>
 320:	e1a03000 	mov	r3, r0
 324:	e3530000 	cmp	r3, #0
 328:	0a000002 	beq	338 <urlTreeInsert+0x338>
 32c:	e51b001c 	ldr	r0, [fp, #-28]
 330:	e51b100c 	ldr	r1, [fp, #-12]
 334:	ebfffffe 	bl	0 <urlTreeInsert>
 338:	e51b201c 	ldr	r2, [fp, #-28]
 33c:	e51b3010 	ldr	r3, [fp, #-16]
 340:	e2821008 	add	r1, r2, #8
 344:	e1a02003 	mov	r2, r3
 348:	e3a03008 	mov	r3, #8
 34c:	e1a00001 	mov	r0, r1
 350:	e1a01002 	mov	r1, r2
 354:	e1a02003 	mov	r2, r3
 358:	ebfffffe 	bl	0 <memcpy>
 35c:	e51b301c 	ldr	r3, [fp, #-28]
 360:	e5d32000 	ldrb	r2, [r3]
 364:	e5d31001 	ldrb	r1, [r3, #1]
 368:	e1a01401 	lsl	r1, r1, #8
 36c:	e1812002 	orr	r2, r1, r2
 370:	e5d31002 	ldrb	r1, [r3, #2]
 374:	e1a01801 	lsl	r1, r1, #16
 378:	e1812002 	orr	r2, r1, r2
 37c:	e5d33003 	ldrb	r3, [r3, #3]
 380:	e1a03c03 	lsl	r3, r3, #24
 384:	e1833002 	orr	r3, r3, r2
 388:	e3730001 	cmn	r3, #1
 38c:	1a000008 	bne	3b4 <urlTreeInsert+0x3b4>
 390:	e51b201c 	ldr	r2, [fp, #-28]
 394:	e51b3010 	ldr	r3, [fp, #-16]
 398:	e1a01002 	mov	r1, r2
 39c:	e1a02003 	mov	r2, r3
 3a0:	e3a03008 	mov	r3, #8
 3a4:	e1a00001 	mov	r0, r1
 3a8:	e1a01002 	mov	r1, r2
 3ac:	e1a02003 	mov	r2, r3
 3b0:	ebfffffe 	bl	0 <memcpy>
 3b4:	e51b301c 	ldr	r3, [fp, #-28]
 3b8:	e5d32024 	ldrb	r2, [r3, #36]	; 0x24
 3bc:	e5d31025 	ldrb	r1, [r3, #37]	; 0x25
 3c0:	e1a01401 	lsl	r1, r1, #8
 3c4:	e1812002 	orr	r2, r1, r2
 3c8:	e5d31026 	ldrb	r1, [r3, #38]	; 0x26
 3cc:	e1a01801 	lsl	r1, r1, #16
 3d0:	e1812002 	orr	r2, r1, r2
 3d4:	e5d33027 	ldrb	r3, [r3, #39]	; 0x27
 3d8:	e1a03c03 	lsl	r3, r3, #24
 3dc:	e1833002 	orr	r3, r3, r2
 3e0:	e2832001 	add	r2, r3, #1
 3e4:	e51b301c 	ldr	r3, [fp, #-28]
 3e8:	e6ef1072 	uxtb	r1, r2
 3ec:	e3a00000 	mov	r0, #0
 3f0:	e1801001 	orr	r1, r0, r1
 3f4:	e5c31024 	strb	r1, [r3, #36]	; 0x24
 3f8:	e1a01422 	lsr	r1, r2, #8
 3fc:	e6ef1071 	uxtb	r1, r1
 400:	e3a00000 	mov	r0, #0
 404:	e1801001 	orr	r1, r0, r1
 408:	e5c31025 	strb	r1, [r3, #37]	; 0x25
 40c:	e1a01822 	lsr	r1, r2, #16
 410:	e6ef1071 	uxtb	r1, r1
 414:	e3a00000 	mov	r0, #0
 418:	e1801001 	orr	r1, r0, r1
 41c:	e5c31026 	strb	r1, [r3, #38]	; 0x26
 420:	e1a02c22 	lsr	r2, r2, #24
 424:	e3a01000 	mov	r1, #0
 428:	e1812002 	orr	r2, r1, r2
 42c:	e5c32027 	strb	r2, [r3, #39]	; 0x27
 430:	ea000000 	b	438 <urlTreeInsert+0x438>
 434:	e1a00000 	nop			; (mov r0, r0)
 438:	e24bd004 	sub	sp, fp, #4
 43c:	e8bd8800 	pop	{fp, pc}

Disassembly of section .text.urlTreeTraversal:

00000000 <urlTreeTraversal>:
   0:	e92d4830 	push	{r4, r5, fp, lr}
   4:	e28db00c 	add	fp, sp, #12
   8:	e24dd018 	sub	sp, sp, #24
   c:	e50b0018 	str	r0, [fp, #-24]
  10:	e51b3018 	ldr	r3, [fp, #-24]
  14:	e2833014 	add	r3, r3, #20
  18:	e1a00003 	mov	r0, r3
  1c:	ebfffffe 	bl	0 <urlTreeTraversal>
  20:	e50b0014 	str	r0, [fp, #-20]
  24:	e51b3018 	ldr	r3, [fp, #-24]
  28:	e283301c 	add	r3, r3, #28
  2c:	e1a00003 	mov	r0, r3
  30:	ebfffffe 	bl	0 <urlTreeTraversal>
  34:	e50b0010 	str	r0, [fp, #-16]
  38:	e51b3014 	ldr	r3, [fp, #-20]
  3c:	e3530000 	cmp	r3, #0
  40:	0a000001 	beq	4c <urlTreeTraversal+0x4c>
  44:	e51b0014 	ldr	r0, [fp, #-20]
  48:	ebfffffe 	bl	0 <urlTreeTraversal>
  4c:	e51b3018 	ldr	r3, [fp, #-24]
  50:	e5d32000 	ldrb	r2, [r3]
  54:	e5d3c001 	ldrb	ip, [r3, #1]
  58:	e1a0c40c 	lsl	ip, ip, #8
  5c:	e18c2002 	orr	r2, ip, r2
  60:	e5d3c002 	ldrb	ip, [r3, #2]
  64:	e1a0c80c 	lsl	ip, ip, #16
  68:	e18c2002 	orr	r2, ip, r2
  6c:	e5d3c003 	ldrb	ip, [r3, #3]
  70:	e1a0cc0c 	lsl	ip, ip, #24
  74:	e18c2002 	orr	r2, ip, r2
  78:	e1a00002 	mov	r0, r2
  7c:	e5d32004 	ldrb	r2, [r3, #4]
  80:	e5d3c005 	ldrb	ip, [r3, #5]
  84:	e1a0c40c 	lsl	ip, ip, #8
  88:	e18c2002 	orr	r2, ip, r2
  8c:	e5d3c006 	ldrb	ip, [r3, #6]
  90:	e1a0c80c 	lsl	ip, ip, #16
  94:	e18c2002 	orr	r2, ip, r2
  98:	e5d33007 	ldrb	r3, [r3, #7]
  9c:	e1a03c03 	lsl	r3, r3, #24
  a0:	e1833002 	orr	r3, r3, r2
  a4:	e1a01003 	mov	r1, r3
  a8:	e1a04001 	mov	r4, r1
  ac:	e3a05000 	mov	r5, #0
  b0:	e1a0c004 	mov	ip, r4
  b4:	e51b3018 	ldr	r3, [fp, #-24]
  b8:	e2833030 	add	r3, r3, #48	; 0x30
  bc:	e58d3000 	str	r3, [sp]
  c0:	e3a00004 	mov	r0, #4
  c4:	e59f3034 	ldr	r3, [pc, #52]	; 100 <urlTreeTraversal+0x100>
  c8:	e08f3003 	add	r3, pc, r3
  cc:	e1a01003 	mov	r1, r3
  d0:	e59f302c 	ldr	r3, [pc, #44]	; 104 <urlTreeTraversal+0x104>
  d4:	e08f3003 	add	r3, pc, r3
  d8:	e1a02003 	mov	r2, r3
  dc:	e1a0300c 	mov	r3, ip
  e0:	ebfffffe 	bl	0 <__android_log_print>
  e4:	e51b3010 	ldr	r3, [fp, #-16]
  e8:	e3530000 	cmp	r3, #0
  ec:	0a000001 	beq	f8 <urlTreeTraversal+0xf8>
  f0:	e51b0010 	ldr	r0, [fp, #-16]
  f4:	ebfffffe 	bl	0 <urlTreeTraversal>
  f8:	e24bd00c 	sub	sp, fp, #12
  fc:	e8bd8830 	pop	{r4, r5, fp, pc}
 100:	0000003c 	.word	0x0000003c
 104:	000001d0 	.word	0x000001d0

Disassembly of section .text.Java_com_UltimateImgSpider_SpiderService_jniAddUrl:

00000000 <Java_com_UltimateImgSpider_SpiderService_jniAddUrl>:
   0:	e92d4810 	push	{r4, fp, lr}
   4:	e28db008 	add	fp, sp, #8
   8:	e24dd034 	sub	sp, sp, #52	; 0x34
   c:	e50b0028 	str	r0, [fp, #-40]	; 0x28
  10:	e50b102c 	str	r1, [fp, #-44]	; 0x2c
  14:	e50b2030 	str	r2, [fp, #-48]	; 0x30
  18:	e50b3034 	str	r3, [fp, #-52]	; 0x34
  1c:	e59f41c0 	ldr	r4, [pc, #448]	; 1e4 <Java_com_UltimateImgSpider_SpiderService_jniAddUrl+0x1e4>
  20:	e08f4004 	add	r4, pc, r4
  24:	e3a03000 	mov	r3, #0
  28:	e54b3021 	strb	r3, [fp, #-33]	; 0x21
  2c:	e59b3004 	ldr	r3, [fp, #4]
  30:	e3530000 	cmp	r3, #0
  34:	1a000003 	bne	48 <Java_com_UltimateImgSpider_SpiderService_jniAddUrl+0x48>
  38:	e59f31a8 	ldr	r3, [pc, #424]	; 1e8 <Java_com_UltimateImgSpider_SpiderService_jniAddUrl+0x1e8>
  3c:	e7943003 	ldr	r3, [r4, r3]
  40:	e5933000 	ldr	r3, [r3]
  44:	ea000003 	b	58 <Java_com_UltimateImgSpider_SpiderService_jniAddUrl+0x58>
  48:	e59f3198 	ldr	r3, [pc, #408]	; 1e8 <Java_com_UltimateImgSpider_SpiderService_jniAddUrl+0x1e8>
  4c:	e7943003 	ldr	r3, [r4, r3]
  50:	e5933000 	ldr	r3, [r3]
  54:	e2833028 	add	r3, r3, #40	; 0x28
  58:	e50b3020 	str	r3, [fp, #-32]
  5c:	e51b3028 	ldr	r3, [fp, #-40]	; 0x28
  60:	e5933000 	ldr	r3, [r3]
  64:	e59332a4 	ldr	r3, [r3, #676]	; 0x2a4
  68:	e51b0028 	ldr	r0, [fp, #-40]	; 0x28
  6c:	e51b1030 	ldr	r1, [fp, #-48]	; 0x30
  70:	e3a02000 	mov	r2, #0
  74:	e12fff33 	blx	r3
  78:	e50b001c 	str	r0, [fp, #-28]
  7c:	e51b3028 	ldr	r3, [fp, #-40]	; 0x28
  80:	e5933000 	ldr	r3, [r3]
  84:	e59332e0 	ldr	r3, [r3, #736]	; 0x2e0
  88:	e51b0028 	ldr	r0, [fp, #-40]	; 0x28
  8c:	e51b1034 	ldr	r1, [fp, #-52]	; 0x34
  90:	e3a02000 	mov	r2, #0
  94:	e12fff33 	blx	r3
  98:	e50b0018 	str	r0, [fp, #-24]
  9c:	e51b3018 	ldr	r3, [fp, #-24]
  a0:	e2833004 	add	r3, r3, #4
  a4:	e24b2014 	sub	r2, fp, #20
  a8:	e1a01002 	mov	r1, r2
  ac:	e1a02003 	mov	r2, r3
  b0:	e3a03008 	mov	r3, #8
  b4:	e1a00001 	mov	r0, r1
  b8:	e1a01002 	mov	r1, r2
  bc:	e1a02003 	mov	r2, r3
  c0:	ebfffffe 	bl	0 <memcpy>
  c4:	e59f3120 	ldr	r3, [pc, #288]	; 1ec <Java_com_UltimateImgSpider_SpiderService_jniAddUrl+0x1ec>
  c8:	e7943003 	ldr	r3, [r4, r3]
  cc:	e51b202c 	ldr	r2, [fp, #-44]	; 0x2c
  d0:	e5832000 	str	r2, [r3]
  d4:	e51b3020 	ldr	r3, [fp, #-32]
  d8:	e5d32024 	ldrb	r2, [r3, #36]	; 0x24
  dc:	e5d31025 	ldrb	r1, [r3, #37]	; 0x25
  e0:	e1a01401 	lsl	r1, r1, #8
  e4:	e1812002 	orr	r2, r1, r2
  e8:	e5d31026 	ldrb	r1, [r3, #38]	; 0x26
  ec:	e1a01801 	lsl	r1, r1, #16
  f0:	e1812002 	orr	r2, r1, r2
  f4:	e5d33027 	ldrb	r3, [r3, #39]	; 0x27
  f8:	e1a03c03 	lsl	r3, r3, #24
  fc:	e1833002 	orr	r3, r3, r2
 100:	e3530009 	cmp	r3, #9
 104:	8a000005 	bhi	120 <Java_com_UltimateImgSpider_SpiderService_jniAddUrl+0x120>
 108:	e14b21d4 	ldrd	r2, [fp, #-20]	; 0xffffffec
 10c:	e1cd20f0 	strd	r2, [sp]
 110:	e51b0028 	ldr	r0, [fp, #-40]	; 0x28
 114:	e51b1020 	ldr	r1, [fp, #-32]
 118:	e51b201c 	ldr	r2, [fp, #-28]
 11c:	ebfffffe 	bl	0 <Java_com_UltimateImgSpider_SpiderService_jniAddUrl>
 120:	e51b3020 	ldr	r3, [fp, #-32]
 124:	e5d32024 	ldrb	r2, [r3, #36]	; 0x24
 128:	e5d31025 	ldrb	r1, [r3, #37]	; 0x25
 12c:	e1a01401 	lsl	r1, r1, #8
 130:	e1812002 	orr	r2, r1, r2
 134:	e5d31026 	ldrb	r1, [r3, #38]	; 0x26
 138:	e1a01801 	lsl	r1, r1, #16
 13c:	e1812002 	orr	r2, r1, r2
 140:	e5d33027 	ldrb	r3, [r3, #39]	; 0x27
 144:	e1a03c03 	lsl	r3, r3, #24
 148:	e1833002 	orr	r3, r3, r2
 14c:	e353000a 	cmp	r3, #10
 150:	1a000006 	bne	170 <Java_com_UltimateImgSpider_SpiderService_jniAddUrl+0x170>
 154:	e51b3020 	ldr	r3, [fp, #-32]
 158:	e2833010 	add	r3, r3, #16
 15c:	e1a00003 	mov	r0, r3
 160:	ebfffffe 	bl	0 <Java_com_UltimateImgSpider_SpiderService_jniAddUrl>
 164:	e1a03000 	mov	r3, r0
 168:	e1a00003 	mov	r0, r3
 16c:	ebfffffe 	bl	0 <Java_com_UltimateImgSpider_SpiderService_jniAddUrl>
 170:	e51b3028 	ldr	r3, [fp, #-40]	; 0x28
 174:	e5933000 	ldr	r3, [r3]
 178:	e59332a8 	ldr	r3, [r3, #680]	; 0x2a8
 17c:	e51b0028 	ldr	r0, [fp, #-40]	; 0x28
 180:	e51b1030 	ldr	r1, [fp, #-48]	; 0x30
 184:	e51b201c 	ldr	r2, [fp, #-28]
 188:	e12fff33 	blx	r3
 18c:	e51b3028 	ldr	r3, [fp, #-40]	; 0x28
 190:	e5933000 	ldr	r3, [r3]
 194:	e593c300 	ldr	ip, [r3, #768]	; 0x300
 198:	e51b0028 	ldr	r0, [fp, #-40]	; 0x28
 19c:	e51b1034 	ldr	r1, [fp, #-52]	; 0x34
 1a0:	e51b2018 	ldr	r2, [fp, #-24]
 1a4:	e3a03000 	mov	r3, #0
 1a8:	e12fff3c 	blx	ip
 1ac:	e51b3020 	ldr	r3, [fp, #-32]
 1b0:	e5d32024 	ldrb	r2, [r3, #36]	; 0x24
 1b4:	e5d31025 	ldrb	r1, [r3, #37]	; 0x25
 1b8:	e1a01401 	lsl	r1, r1, #8
 1bc:	e1812002 	orr	r2, r1, r2
 1c0:	e5d31026 	ldrb	r1, [r3, #38]	; 0x26
 1c4:	e1a01801 	lsl	r1, r1, #16
 1c8:	e1812002 	orr	r2, r1, r2
 1cc:	e5d33027 	ldrb	r3, [r3, #39]	; 0x27
 1d0:	e1a03c03 	lsl	r3, r3, #24
 1d4:	e1833002 	orr	r3, r3, r2
 1d8:	e1a00003 	mov	r0, r3
 1dc:	e24bd008 	sub	sp, fp, #8
 1e0:	e8bd8810 	pop	{r4, fp, pc}
 1e4:	000001bc 	.word	0x000001bc
	...

Disassembly of section .text.urlSimilarity:

00000000 <urlSimilarity>:
   0:	e52db004 	push	{fp}		; (str fp, [sp, #-4]!)
   4:	e28db000 	add	fp, sp, #0
   8:	e24dd024 	sub	sp, sp, #36	; 0x24
   c:	e50b0018 	str	r0, [fp, #-24]
  10:	e50b2020 	str	r2, [fp, #-32]
  14:	e14b11ba 	strh	r1, [fp, #-26]	; 0xffffffe6
  18:	e14b31bc 	strh	r3, [fp, #-28]	; 0xffffffe4
  1c:	e15b21ba 	ldrh	r2, [fp, #-26]	; 0xffffffe6
  20:	e15b31bc 	ldrh	r3, [fp, #-28]	; 0xffffffe4
  24:	e1520003 	cmp	r2, r3
  28:	31a03002 	movcc	r3, r2
  2c:	e14b31b0 	strh	r3, [fp, #-16]
  30:	e15b31b0 	ldrh	r3, [fp, #-16]
  34:	e1a03123 	lsr	r3, r3, #2
  38:	e14b31b0 	strh	r3, [fp, #-16]
  3c:	e15b31b0 	ldrh	r3, [fp, #-16]
  40:	e14b30be 	strh	r3, [fp, #-14]
  44:	e51b3018 	ldr	r3, [fp, #-24]
  48:	e50b300c 	str	r3, [fp, #-12]
  4c:	e51b3020 	ldr	r3, [fp, #-32]
  50:	e50b3008 	str	r3, [fp, #-8]
  54:	e3a03000 	mov	r3, #0
  58:	e14b31b2 	strh	r3, [fp, #-18]	; 0xffffffee
  5c:	ea00000e 	b	9c <urlSimilarity+0x9c>
  60:	e15b31b2 	ldrh	r3, [fp, #-18]	; 0xffffffee
  64:	e1a03103 	lsl	r3, r3, #2
  68:	e51b200c 	ldr	r2, [fp, #-12]
  6c:	e0823003 	add	r3, r2, r3
  70:	e5932000 	ldr	r2, [r3]
  74:	e15b31b2 	ldrh	r3, [fp, #-18]	; 0xffffffee
  78:	e1a03103 	lsl	r3, r3, #2
  7c:	e51b1008 	ldr	r1, [fp, #-8]
  80:	e0813003 	add	r3, r1, r3
  84:	e5933000 	ldr	r3, [r3]
  88:	e1520003 	cmp	r2, r3
  8c:	1a000007 	bne	b0 <urlSimilarity+0xb0>
  90:	e15b31b2 	ldrh	r3, [fp, #-18]	; 0xffffffee
  94:	e2833001 	add	r3, r3, #1
  98:	e14b31b2 	strh	r3, [fp, #-18]	; 0xffffffee
  9c:	e15b21b2 	ldrh	r2, [fp, #-18]	; 0xffffffee
  a0:	e15b30be 	ldrh	r3, [fp, #-14]
  a4:	e1520003 	cmp	r2, r3
  a8:	3affffec 	bcc	60 <urlSimilarity+0x60>
  ac:	ea000000 	b	b4 <urlSimilarity+0xb4>
  b0:	e1a00000 	nop			; (mov r0, r0)
  b4:	e15b31b2 	ldrh	r3, [fp, #-18]	; 0xffffffee
  b8:	e1a03103 	lsl	r3, r3, #2
  bc:	e14b31b2 	strh	r3, [fp, #-18]	; 0xffffffee
  c0:	ea00000c 	b	f8 <urlSimilarity+0xf8>
  c4:	e15b31b2 	ldrh	r3, [fp, #-18]	; 0xffffffee
  c8:	e51b2018 	ldr	r2, [fp, #-24]
  cc:	e0823003 	add	r3, r2, r3
  d0:	e5d32000 	ldrb	r2, [r3]
  d4:	e15b31b2 	ldrh	r3, [fp, #-18]	; 0xffffffee
  d8:	e51b1020 	ldr	r1, [fp, #-32]
  dc:	e0813003 	add	r3, r1, r3
  e0:	e5d33000 	ldrb	r3, [r3]
  e4:	e1520003 	cmp	r2, r3
  e8:	1a000007 	bne	10c <urlSimilarity+0x10c>
  ec:	e15b31b2 	ldrh	r3, [fp, #-18]	; 0xffffffee
  f0:	e2833001 	add	r3, r3, #1
  f4:	e14b31b2 	strh	r3, [fp, #-18]	; 0xffffffee
  f8:	e15b21b2 	ldrh	r2, [fp, #-18]	; 0xffffffee
  fc:	e15b31b0 	ldrh	r3, [fp, #-16]
 100:	e1520003 	cmp	r2, r3
 104:	3affffee 	bcc	c4 <urlSimilarity+0xc4>
 108:	ea000000 	b	110 <urlSimilarity+0x110>
 10c:	e1a00000 	nop			; (mov r0, r0)
 110:	e15b31b2 	ldrh	r3, [fp, #-18]	; 0xffffffee
 114:	e1a00003 	mov	r0, r3
 118:	e28bd000 	add	sp, fp, #0
 11c:	e8bd0800 	pop	{fp}
 120:	e12fff1e 	bx	lr

Disassembly of section .text.Java_com_UltimateImgSpider_SpiderService_jniFindNextUrlToLoad:

00000000 <Java_com_UltimateImgSpider_SpiderService_jniFindNextUrlToLoad>:
   0:	e92d4800 	push	{fp, lr}
   4:	e28db004 	add	fp, sp, #4
   8:	e24dd038 	sub	sp, sp, #56	; 0x38
   c:	e50b0030 	str	r0, [fp, #-48]	; 0x30
  10:	e50b1034 	str	r1, [fp, #-52]	; 0x34
  14:	e50b2038 	str	r2, [fp, #-56]	; 0x38
  18:	e50b303c 	str	r3, [fp, #-60]	; 0x3c
  1c:	e59f33e0 	ldr	r3, [pc, #992]	; 404 <Java_com_UltimateImgSpider_SpiderService_jniFindNextUrlToLoad+0x404>
  20:	e08f3003 	add	r3, pc, r3
  24:	e51b203c 	ldr	r2, [fp, #-60]	; 0x3c
  28:	e3520000 	cmp	r2, #0
  2c:	1a000003 	bne	40 <Java_com_UltimateImgSpider_SpiderService_jniFindNextUrlToLoad+0x40>
  30:	e59f23d0 	ldr	r2, [pc, #976]	; 408 <Java_com_UltimateImgSpider_SpiderService_jniFindNextUrlToLoad+0x408>
  34:	e7933002 	ldr	r3, [r3, r2]
  38:	e5933000 	ldr	r3, [r3]
  3c:	ea000003 	b	50 <Java_com_UltimateImgSpider_SpiderService_jniFindNextUrlToLoad+0x50>
  40:	e59f23c0 	ldr	r2, [pc, #960]	; 408 <Java_com_UltimateImgSpider_SpiderService_jniFindNextUrlToLoad+0x408>
  44:	e7933002 	ldr	r3, [r3, r2]
  48:	e5933000 	ldr	r3, [r3]
  4c:	e2833028 	add	r3, r3, #40	; 0x28
  50:	e50b3010 	str	r3, [fp, #-16]
  54:	e59f33b0 	ldr	r3, [pc, #944]	; 40c <Java_com_UltimateImgSpider_SpiderService_jniFindNextUrlToLoad+0x40c>
  58:	e08f3003 	add	r3, pc, r3
  5c:	e50b3020 	str	r3, [fp, #-32]
  60:	e3a03000 	mov	r3, #0
  64:	e50b301c 	str	r3, [fp, #-28]
  68:	e51b3010 	ldr	r3, [fp, #-16]
  6c:	e1a00003 	mov	r0, r3
  70:	ebfffffe 	bl	0 <Java_com_UltimateImgSpider_SpiderService_jniFindNextUrlToLoad>
  74:	e50b0018 	str	r0, [fp, #-24]
  78:	e51b3018 	ldr	r3, [fp, #-24]
  7c:	e3530000 	cmp	r3, #0
  80:	0a0000ca 	beq	3b0 <Java_com_UltimateImgSpider_SpiderService_jniFindNextUrlToLoad+0x3b0>
  84:	e51b3038 	ldr	r3, [fp, #-56]	; 0x38
  88:	e3530000 	cmp	r3, #0
  8c:	1a000023 	bne	120 <Java_com_UltimateImgSpider_SpiderService_jniFindNextUrlToLoad+0x120>
  90:	e3a03000 	mov	r3, #0
  94:	e50b3024 	str	r3, [fp, #-36]	; 0x24
  98:	ea000011 	b	e4 <Java_com_UltimateImgSpider_SpiderService_jniFindNextUrlToLoad+0xe4>
  9c:	e51b3018 	ldr	r3, [fp, #-24]
  a0:	e5d32008 	ldrb	r2, [r3, #8]
  a4:	e5d33009 	ldrb	r3, [r3, #9]
  a8:	e1a03403 	lsl	r3, r3, #8
  ac:	e1833002 	orr	r3, r3, r2
  b0:	e6ff3073 	uxth	r3, r3
  b4:	e3530000 	cmp	r3, #0
  b8:	1a000003 	bne	cc <Java_com_UltimateImgSpider_SpiderService_jniFindNextUrlToLoad+0xcc>
  bc:	e51b3018 	ldr	r3, [fp, #-24]
  c0:	e50b301c 	str	r3, [fp, #-28]
  c4:	e1a00000 	nop			; (mov r0, r0)
  c8:	ea0000b8 	b	3b0 <Java_com_UltimateImgSpider_SpiderService_jniFindNextUrlToLoad+0x3b0>
  cc:	e51b0018 	ldr	r0, [fp, #-24]
  d0:	ebfffffe 	bl	0 <Java_com_UltimateImgSpider_SpiderService_jniFindNextUrlToLoad>
  d4:	e50b0018 	str	r0, [fp, #-24]
  d8:	e51b3024 	ldr	r3, [fp, #-36]	; 0x24
  dc:	e2833001 	add	r3, r3, #1
  e0:	e50b3024 	str	r3, [fp, #-36]	; 0x24
  e4:	e51b2024 	ldr	r2, [fp, #-36]	; 0x24
  e8:	e51b3010 	ldr	r3, [fp, #-16]
  ec:	e5d31024 	ldrb	r1, [r3, #36]	; 0x24
  f0:	e5d30025 	ldrb	r0, [r3, #37]	; 0x25
  f4:	e1a00400 	lsl	r0, r0, #8
  f8:	e1801001 	orr	r1, r0, r1
  fc:	e5d30026 	ldrb	r0, [r3, #38]	; 0x26
 100:	e1a00800 	lsl	r0, r0, #16
 104:	e1801001 	orr	r1, r0, r1
 108:	e5d33027 	ldrb	r3, [r3, #39]	; 0x27
 10c:	e1a03c03 	lsl	r3, r3, #24
 110:	e1833001 	orr	r3, r3, r1
 114:	e1520003 	cmp	r2, r3
 118:	3affffdf 	bcc	9c <Java_com_UltimateImgSpider_SpiderService_jniFindNextUrlToLoad+0x9c>
 11c:	ea0000a3 	b	3b0 <Java_com_UltimateImgSpider_SpiderService_jniFindNextUrlToLoad+0x3b0>
 120:	e3a03001 	mov	r3, #1
 124:	e54b3027 	strb	r3, [fp, #-39]	; 0x27
 128:	e3a03000 	mov	r3, #0
 12c:	e50b3014 	str	r3, [fp, #-20]
 130:	e51b3030 	ldr	r3, [fp, #-48]	; 0x30
 134:	e5933000 	ldr	r3, [r3]
 138:	e59332a4 	ldr	r3, [r3, #676]	; 0x2a4
 13c:	e51b0030 	ldr	r0, [fp, #-48]	; 0x30
 140:	e51b1038 	ldr	r1, [fp, #-56]	; 0x38
 144:	e3a02000 	mov	r2, #0
 148:	e12fff33 	blx	r3
 14c:	e50b000c 	str	r0, [fp, #-12]
 150:	e51b000c 	ldr	r0, [fp, #-12]
 154:	ebfffffe 	bl	0 <strlen>
 158:	e1a03000 	mov	r3, r0
 15c:	e14b32b6 	strh	r3, [fp, #-38]	; 0xffffffda
 160:	e51b300c 	ldr	r3, [fp, #-12]
 164:	e2033001 	and	r3, r3, #1
 168:	e6ef3073 	uxtb	r3, r3
 16c:	e3530000 	cmp	r3, #0
 170:	0a000007 	beq	194 <Java_com_UltimateImgSpider_SpiderService_jniFindNextUrlToLoad+0x194>
 174:	e3a00004 	mov	r0, #4
 178:	e59f3290 	ldr	r3, [pc, #656]	; 410 <Java_com_UltimateImgSpider_SpiderService_jniFindNextUrlToLoad+0x410>
 17c:	e08f3003 	add	r3, pc, r3
 180:	e1a01003 	mov	r1, r3
 184:	e59f3288 	ldr	r3, [pc, #648]	; 414 <Java_com_UltimateImgSpider_SpiderService_jniFindNextUrlToLoad+0x414>
 188:	e08f3003 	add	r3, pc, r3
 18c:	e1a02003 	mov	r2, r3
 190:	ebfffffe 	bl	0 <__android_log_print>
 194:	e51b3010 	ldr	r3, [fp, #-16]
 198:	e2833018 	add	r3, r3, #24
 19c:	e1a00003 	mov	r0, r3
 1a0:	ebfffffe 	bl	0 <Java_com_UltimateImgSpider_SpiderService_jniFindNextUrlToLoad>
 1a4:	e50b001c 	str	r0, [fp, #-28]
 1a8:	e51b301c 	ldr	r3, [fp, #-28]
 1ac:	e3530000 	cmp	r3, #0
 1b0:	0a00002e 	beq	270 <Java_com_UltimateImgSpider_SpiderService_jniFindNextUrlToLoad+0x270>
 1b4:	e51b301c 	ldr	r3, [fp, #-28]
 1b8:	e2833030 	add	r3, r3, #48	; 0x30
 1bc:	e51b000c 	ldr	r0, [fp, #-12]
 1c0:	e1a01003 	mov	r1, r3
 1c4:	ebfffffe 	bl	0 <strcmp>
 1c8:	e1a03000 	mov	r3, r0
 1cc:	e3530000 	cmp	r3, #0
 1d0:	1a000024 	bne	268 <Java_com_UltimateImgSpider_SpiderService_jniFindNextUrlToLoad+0x268>
 1d4:	e51b301c 	ldr	r3, [fp, #-28]
 1d8:	e3a02000 	mov	r2, #0
 1dc:	e3822001 	orr	r2, r2, #1
 1e0:	e5c32008 	strb	r2, [r3, #8]
 1e4:	e3a02000 	mov	r2, #0
 1e8:	e5c32009 	strb	r2, [r3, #9]
 1ec:	e51b3010 	ldr	r3, [fp, #-16]
 1f0:	e5d32020 	ldrb	r2, [r3, #32]
 1f4:	e5d31021 	ldrb	r1, [r3, #33]	; 0x21
 1f8:	e1a01401 	lsl	r1, r1, #8
 1fc:	e1812002 	orr	r2, r1, r2
 200:	e5d31022 	ldrb	r1, [r3, #34]	; 0x22
 204:	e1a01801 	lsl	r1, r1, #16
 208:	e1812002 	orr	r2, r1, r2
 20c:	e5d33023 	ldrb	r3, [r3, #35]	; 0x23
 210:	e1a03c03 	lsl	r3, r3, #24
 214:	e1833002 	orr	r3, r3, r2
 218:	e2832001 	add	r2, r3, #1
 21c:	e51b3010 	ldr	r3, [fp, #-16]
 220:	e6ef1072 	uxtb	r1, r2
 224:	e3a00000 	mov	r0, #0
 228:	e1801001 	orr	r1, r0, r1
 22c:	e5c31020 	strb	r1, [r3, #32]
 230:	e1a01422 	lsr	r1, r2, #8
 234:	e6ef1071 	uxtb	r1, r1
 238:	e3a00000 	mov	r0, #0
 23c:	e1801001 	orr	r1, r0, r1
 240:	e5c31021 	strb	r1, [r3, #33]	; 0x21
 244:	e1a01822 	lsr	r1, r2, #16
 248:	e6ef1071 	uxtb	r1, r1
 24c:	e3a00000 	mov	r0, #0
 250:	e1801001 	orr	r1, r0, r1
 254:	e5c31022 	strb	r1, [r3, #34]	; 0x22
 258:	e1a02c22 	lsr	r2, r2, #24
 25c:	e3a01000 	mov	r1, #0
 260:	e1812002 	orr	r2, r1, r2
 264:	e5c32023 	strb	r2, [r3, #35]	; 0x23
 268:	e3a03000 	mov	r3, #0
 26c:	e50b301c 	str	r3, [fp, #-28]
 270:	e3a03000 	mov	r3, #0
 274:	e50b3024 	str	r3, [fp, #-36]	; 0x24
 278:	ea000037 	b	35c <Java_com_UltimateImgSpider_SpiderService_jniFindNextUrlToLoad+0x35c>
 27c:	e51b3018 	ldr	r3, [fp, #-24]
 280:	e5d32008 	ldrb	r2, [r3, #8]
 284:	e5d33009 	ldrb	r3, [r3, #9]
 288:	e1a03403 	lsl	r3, r3, #8
 28c:	e1833002 	orr	r3, r3, r2
 290:	e6ff3073 	uxth	r3, r3
 294:	e3530000 	cmp	r3, #0
 298:	1a000029 	bne	344 <Java_com_UltimateImgSpider_SpiderService_jniFindNextUrlToLoad+0x344>
 29c:	e55b3027 	ldrb	r3, [fp, #-39]	; 0x27
 2a0:	e3530000 	cmp	r3, #0
 2a4:	0a000011 	beq	2f0 <Java_com_UltimateImgSpider_SpiderService_jniFindNextUrlToLoad+0x2f0>
 2a8:	e3a03000 	mov	r3, #0
 2ac:	e54b3027 	strb	r3, [fp, #-39]	; 0x27
 2b0:	e51b3018 	ldr	r3, [fp, #-24]
 2b4:	e2832030 	add	r2, r3, #48	; 0x30
 2b8:	e51b3018 	ldr	r3, [fp, #-24]
 2bc:	e5d3100a 	ldrb	r1, [r3, #10]
 2c0:	e5d3300b 	ldrb	r3, [r3, #11]
 2c4:	e1a03403 	lsl	r3, r3, #8
 2c8:	e1833001 	orr	r3, r3, r1
 2cc:	e6ff3073 	uxth	r3, r3
 2d0:	e15b12b6 	ldrh	r1, [fp, #-38]	; 0xffffffda
 2d4:	e51b000c 	ldr	r0, [fp, #-12]
 2d8:	ebfffffe 	bl	0 <Java_com_UltimateImgSpider_SpiderService_jniFindNextUrlToLoad>
 2dc:	e1a03000 	mov	r3, r0
 2e0:	e50b3014 	str	r3, [fp, #-20]
 2e4:	e51b3018 	ldr	r3, [fp, #-24]
 2e8:	e50b301c 	str	r3, [fp, #-28]
 2ec:	ea000014 	b	344 <Java_com_UltimateImgSpider_SpiderService_jniFindNextUrlToLoad+0x344>
 2f0:	e51b3018 	ldr	r3, [fp, #-24]
 2f4:	e2832030 	add	r2, r3, #48	; 0x30
 2f8:	e51b3018 	ldr	r3, [fp, #-24]
 2fc:	e5d3100a 	ldrb	r1, [r3, #10]
 300:	e5d3300b 	ldrb	r3, [r3, #11]
 304:	e1a03403 	lsl	r3, r3, #8
 308:	e1833001 	orr	r3, r3, r1
 30c:	e6ff3073 	uxth	r3, r3
 310:	e15b12b6 	ldrh	r1, [fp, #-38]	; 0xffffffda
 314:	e51b000c 	ldr	r0, [fp, #-12]
 318:	ebfffffe 	bl	0 <Java_com_UltimateImgSpider_SpiderService_jniFindNextUrlToLoad>
 31c:	e1a03000 	mov	r3, r0
 320:	e50b3008 	str	r3, [fp, #-8]
 324:	e51b2008 	ldr	r2, [fp, #-8]
 328:	e51b3014 	ldr	r3, [fp, #-20]
 32c:	e1520003 	cmp	r2, r3
 330:	9a000003 	bls	344 <Java_com_UltimateImgSpider_SpiderService_jniFindNextUrlToLoad+0x344>
 334:	e51b3008 	ldr	r3, [fp, #-8]
 338:	e50b3014 	str	r3, [fp, #-20]
 33c:	e51b3018 	ldr	r3, [fp, #-24]
 340:	e50b301c 	str	r3, [fp, #-28]
 344:	e51b0018 	ldr	r0, [fp, #-24]
 348:	ebfffffe 	bl	0 <Java_com_UltimateImgSpider_SpiderService_jniFindNextUrlToLoad>
 34c:	e50b0018 	str	r0, [fp, #-24]
 350:	e51b3024 	ldr	r3, [fp, #-36]	; 0x24
 354:	e2833001 	add	r3, r3, #1
 358:	e50b3024 	str	r3, [fp, #-36]	; 0x24
 35c:	e51b2024 	ldr	r2, [fp, #-36]	; 0x24
 360:	e51b3010 	ldr	r3, [fp, #-16]
 364:	e5d31024 	ldrb	r1, [r3, #36]	; 0x24
 368:	e5d30025 	ldrb	r0, [r3, #37]	; 0x25
 36c:	e1a00400 	lsl	r0, r0, #8
 370:	e1801001 	orr	r1, r0, r1
 374:	e5d30026 	ldrb	r0, [r3, #38]	; 0x26
 378:	e1a00800 	lsl	r0, r0, #16
 37c:	e1801001 	orr	r1, r0, r1
 380:	e5d33027 	ldrb	r3, [r3, #39]	; 0x27
 384:	e1a03c03 	lsl	r3, r3, #24
 388:	e1833001 	orr	r3, r3, r1
 38c:	e1520003 	cmp	r2, r3
 390:	3affffb9 	bcc	27c <Java_com_UltimateImgSpider_SpiderService_jniFindNextUrlToLoad+0x27c>
 394:	e51b3030 	ldr	r3, [fp, #-48]	; 0x30
 398:	e5933000 	ldr	r3, [r3]
 39c:	e59332a8 	ldr	r3, [r3, #680]	; 0x2a8
 3a0:	e51b0030 	ldr	r0, [fp, #-48]	; 0x30
 3a4:	e51b1038 	ldr	r1, [fp, #-56]	; 0x38
 3a8:	e51b200c 	ldr	r2, [fp, #-12]
 3ac:	e12fff33 	blx	r3
 3b0:	e51b301c 	ldr	r3, [fp, #-28]
 3b4:	e3530000 	cmp	r3, #0
 3b8:	0a000007 	beq	3dc <Java_com_UltimateImgSpider_SpiderService_jniFindNextUrlToLoad+0x3dc>
 3bc:	e51b301c 	ldr	r3, [fp, #-28]
 3c0:	e2833030 	add	r3, r3, #48	; 0x30
 3c4:	e50b3020 	str	r3, [fp, #-32]
 3c8:	e51b3010 	ldr	r3, [fp, #-16]
 3cc:	e2833018 	add	r3, r3, #24
 3d0:	e51b001c 	ldr	r0, [fp, #-28]
 3d4:	e1a01003 	mov	r1, r3
 3d8:	ebfffffe 	bl	0 <Java_com_UltimateImgSpider_SpiderService_jniFindNextUrlToLoad>
 3dc:	e51b3030 	ldr	r3, [fp, #-48]	; 0x30
 3e0:	e5933000 	ldr	r3, [r3]
 3e4:	e593329c 	ldr	r3, [r3, #668]	; 0x29c
 3e8:	e51b0030 	ldr	r0, [fp, #-48]	; 0x30
 3ec:	e51b1020 	ldr	r1, [fp, #-32]
 3f0:	e12fff33 	blx	r3
 3f4:	e1a03000 	mov	r3, r0
 3f8:	e1a00003 	mov	r0, r3
 3fc:	e24bd004 	sub	sp, fp, #4
 400:	e8bd8800 	pop	{fp, pc}
 404:	000003dc 	.word	0x000003dc
 408:	00000000 	.word	0x00000000
 40c:	0000055c 	.word	0x0000055c
 410:	00000298 	.word	0x00000298
 414:	00000438 	.word	0x00000438

UltimateImgSpider.o:     file format elf32-littlearm


Disassembly of section .text.ashmem_create_region:

00000000 <ashmem_create_region>:
 */

#define ASHM_NAME_SIZE	32

int ashmem_create_region(const char *name, u32 size)
{
   0:	e92d4810 	push	{r4, fp, lr}
   4:	e28db008 	add	fp, sp, #8
   8:	e24dd03c 	sub	sp, sp, #60	; 0x3c
   c:	e50b0040 	str	r0, [fp, #-64]	; 0x40
  10:	e50b1044 	str	r1, [fp, #-68]	; 0x44
  14:	e59f412c 	ldr	r4, [pc, #300]	; 148 <ashmem_create_region+0x148>
  18:	e08f4004 	add	r4, pc, r4
  1c:	e59f3128 	ldr	r3, [pc, #296]	; 14c <ashmem_create_region+0x14c>
  20:	e7943003 	ldr	r3, [r4, r3]
  24:	e5933000 	ldr	r3, [r3]
  28:	e50b3010 	str	r3, [fp, #-16]
	int fd, fdWithOption;
	char buf[ASHM_NAME_SIZE];

	while (name && size)
  2c:	e1a00000 	nop			; (mov r0, r0)
  30:	e51b3040 	ldr	r3, [fp, #-64]	; 0x40
  34:	e3530000 	cmp	r3, #0
  38:	0a000037 	beq	11c <ashmem_create_region+0x11c>
  3c:	ea00002f 	b	100 <ashmem_create_region+0x100>
	{
		fd = open(ASHMEM_NAME_DEF, O_RDWR);
  40:	e59f3108 	ldr	r3, [pc, #264]	; 150 <ashmem_create_region+0x150>
  44:	e08f3003 	add	r3, pc, r3
  48:	e1a00003 	mov	r0, r3
  4c:	e3a01002 	mov	r1, #2
  50:	ebfffffe 	bl	0 <open>
  54:	e50b0038 	str	r0, [fp, #-56]	; 0x38
		if (fd < 0)
  58:	e51b3038 	ldr	r3, [fp, #-56]	; 0x38
  5c:	e3530000 	cmp	r3, #0
  60:	ba00002a 	blt	110 <ashmem_create_region+0x110>
		{
			break;
		}

		LOGI("ashmem open success %d", fd);
  64:	e3a00004 	mov	r0, #4
  68:	e59f30e4 	ldr	r3, [pc, #228]	; 154 <ashmem_create_region+0x154>
  6c:	e08f3003 	add	r3, pc, r3
  70:	e1a01003 	mov	r1, r3
  74:	e59f30dc 	ldr	r3, [pc, #220]	; 158 <ashmem_create_region+0x158>
  78:	e08f3003 	add	r3, pc, r3
  7c:	e1a02003 	mov	r2, r3
  80:	e51b3038 	ldr	r3, [fp, #-56]	; 0x38
  84:	ebfffffe 	bl	0 <__android_log_print>

		strlcpy(buf, name, sizeof(buf));
  88:	e24b3030 	sub	r3, fp, #48	; 0x30
  8c:	e1a00003 	mov	r0, r3
  90:	e51b1040 	ldr	r1, [fp, #-64]	; 0x40
  94:	e3a02020 	mov	r2, #32
  98:	ebfffffe 	bl	0 <strlcpy>
		fdWithOption = ioctl(fd, ASHMEM_SET_NAME, buf);
  9c:	e24b3030 	sub	r3, fp, #48	; 0x30
  a0:	e51b0038 	ldr	r0, [fp, #-56]	; 0x38
  a4:	e3071701 	movw	r1, #30465	; 0x7701
  a8:	e3441100 	movt	r1, #16640	; 0x4100
  ac:	e1a02003 	mov	r2, r3
  b0:	ebfffffe 	bl	0 <ioctl>
  b4:	e50b0034 	str	r0, [fp, #-52]	; 0x34
		if (fdWithOption < 0)
  b8:	e51b3034 	ldr	r3, [fp, #-52]	; 0x34
  bc:	e3530000 	cmp	r3, #0
  c0:	aa000002 	bge	d0 <ashmem_create_region+0xd0>
		{
			close(fd);
  c4:	e51b0038 	ldr	r0, [fp, #-56]	; 0x38
  c8:	ebfffffe 	bl	0 <close>
			break;
  cc:	ea000012 	b	11c <ashmem_create_region+0x11c>
		}
		fdWithOption = ioctl(fd, ASHMEM_SET_SIZE, size);
  d0:	e51b0038 	ldr	r0, [fp, #-56]	; 0x38
  d4:	e3071703 	movw	r1, #30467	; 0x7703
  d8:	e3441004 	movt	r1, #16388	; 0x4004
  dc:	e51b2044 	ldr	r2, [fp, #-68]	; 0x44
  e0:	ebfffffe 	bl	0 <ioctl>
  e4:	e50b0034 	str	r0, [fp, #-52]	; 0x34
		if (fdWithOption < 0)
  e8:	e51b3034 	ldr	r3, [fp, #-52]	; 0x34
  ec:	e3530000 	cmp	r3, #0
  f0:	aa000008 	bge	118 <ashmem_create_region+0x118>
		{
			close(fd);
  f4:	e51b0038 	ldr	r0, [fp, #-56]	; 0x38
  f8:	ebfffffe 	bl	0 <close>
			break;
  fc:	ea000006 	b	11c <ashmem_create_region+0x11c>
int ashmem_create_region(const char *name, u32 size)
{
	int fd, fdWithOption;
	char buf[ASHM_NAME_SIZE];

	while (name && size)
 100:	e51b3044 	ldr	r3, [fp, #-68]	; 0x44
 104:	e3530000 	cmp	r3, #0
 108:	1affffcc 	bne	40 <ashmem_create_region+0x40>
 10c:	ea000002 	b	11c <ashmem_create_region+0x11c>
	{
		fd = open(ASHMEM_NAME_DEF, O_RDWR);
		if (fd < 0)
		{
			break;
 110:	e1a00000 	nop			; (mov r0, r0)
 114:	ea000000 	b	11c <ashmem_create_region+0x11c>
		{
			close(fd);
			break;
		}

		break;
 118:	e1a00000 	nop			; (mov r0, r0)
	}

	return fd;
 11c:	e51b3038 	ldr	r3, [fp, #-56]	; 0x38
}
 120:	e1a00003 	mov	r0, r3
 124:	e59f3020 	ldr	r3, [pc, #32]	; 14c <ashmem_create_region+0x14c>
 128:	e7943003 	ldr	r3, [r4, r3]
 12c:	e51b2010 	ldr	r2, [fp, #-16]
 130:	e5933000 	ldr	r3, [r3]
 134:	e1520003 	cmp	r2, r3
 138:	0a000000 	beq	140 <ashmem_create_region+0x140>
 13c:	ebfffffe 	bl	0 <__stack_chk_fail>
 140:	e24bd008 	sub	sp, fp, #8
 144:	e8bd8810 	pop	{r4, fp, pc}
 148:	00000128 	.word	0x00000128
 14c:	00000000 	.word	0x00000000
 150:	00000104 	.word	0x00000104
 154:	000000ec 	.word	0x000000ec
 158:	000000e8 	.word	0x000000e8

Disassembly of section .text.findAshmemByName:

00000000 <findAshmemByName>:
t_ashmNode *ashmemChainHead=NULL;
t_ashmNode *ashmemChainTail=NULL;


t_ashmNode *findAshmemByName(const char *name)
{
   0:	e92d4800 	.word	0xe92d4800
   4:	e28db004 	add	fp, sp, #4
   8:	e24dd010 	sub	sp, sp, #16
   c:	e50b0010 	str	r0, [fp, #-16]
  10:	e59f3060 	ldr	r3, [pc, #96]	; 78 <findAshmemByName+0x78>
  14:	e08f3003 	add	r3, pc, r3
	t_ashmNode *ashmNode=ashmemChainHead;
  18:	e59f205c 	ldr	r2, [pc, #92]	; 7c <findAshmemByName+0x7c>
  1c:	e7933002 	ldr	r3, [r3, r2]
  20:	e5933000 	ldr	r3, [r3]
  24:	e50b3008 	str	r3, [fp, #-8]

	while(ashmNode!=NULL)
  28:	ea00000b 	b	5c <findAshmemByName+0x5c>
	{
		if(strcmp(ashmNode->name, name)==0)
  2c:	e51b3008 	ldr	r3, [fp, #-8]
  30:	e1a00003 	mov	r0, r3
  34:	e51b1010 	ldr	r1, [fp, #-16]
  38:	ebfffffe 	bl	0 <strcmp>
  3c:	e1a03000 	mov	r3, r0
  40:	e3530000 	cmp	r3, #0
  44:	1a000001 	bne	50 <findAshmemByName+0x50>
		{
			return ashmNode;
  48:	e51b3008 	ldr	r3, [fp, #-8]
  4c:	ea000006 	b	6c <findAshmemByName+0x6c>
		}

		ashmNode=ashmNode->next;
  50:	e51b3008 	ldr	r3, [fp, #-8]
  54:	e5933030 	ldr	r3, [r3, #48]	; 0x30
  58:	e50b3008 	str	r3, [fp, #-8]

t_ashmNode *findAshmemByName(const char *name)
{
	t_ashmNode *ashmNode=ashmemChainHead;

	while(ashmNode!=NULL)
  5c:	e51b3008 	ldr	r3, [fp, #-8]
  60:	e3530000 	cmp	r3, #0
  64:	1afffff0 	bne	2c <findAshmemByName+0x2c>
		}

		ashmNode=ashmNode->next;
	}

	return NULL;
  68:	e3a03000 	mov	r3, #0
}
  6c:	e1a00003 	mov	r0, r3
  70:	e24bd004 	sub	sp, fp, #4
  74:	e8bd8800 	pop	{fp, pc}
  78:	0000005c 	.word	0x0000005c
  7c:	00000000 	.word	0x00000000

Disassembly of section .text.Java_com_UltimateImgSpider_WatchdogService_jniGetAshmem:

00000000 <Java_com_UltimateImgSpider_WatchdogService_jniGetAshmem>:

int Java_com_UltimateImgSpider_WatchdogService_jniGetAshmem(JNIEnv* env,
		jobject thiz, jstring jname, jint size)
{
   0:	e92d4810 	push	{r4, fp, lr}
   4:	e28db008 	add	fp, sp, #8
   8:	e24dd034 	sub	sp, sp, #52	; 0x34
   c:	e50b0028 	str	r0, [fp, #-40]	; 0x28
  10:	e50b102c 	str	r1, [fp, #-44]	; 0x2c
  14:	e50b2030 	str	r2, [fp, #-48]	; 0x30
  18:	e50b3034 	str	r3, [fp, #-52]	; 0x34
  1c:	e59f42b0 	ldr	r4, [pc, #688]	; 2d4 <Java_com_UltimateImgSpider_WatchdogService_jniGetAshmem+0x2d4>
  20:	e08f4004 	add	r4, pc, r4
	int i, fd=-1;
  24:	e3e03000 	mvn	r3, #0
  28:	e50b3020 	str	r3, [fp, #-32]
	s64 fdWithOption;
	const char *name = (*env)->GetStringUTFChars(env, jname, NULL);
  2c:	e51b3028 	ldr	r3, [fp, #-40]	; 0x28
  30:	e5933000 	ldr	r3, [r3]
  34:	e59332a4 	ldr	r3, [r3, #676]	; 0x2a4
  38:	e51b0028 	ldr	r0, [fp, #-40]	; 0x28
  3c:	e51b1030 	ldr	r1, [fp, #-48]	; 0x30
  40:	e3a02000 	mov	r2, #0
  44:	e12fff33 	blx	r3
  48:	e50b001c 	str	r0, [fp, #-28]

	t_ashmNode *ashmNode=findAshmemByName(name);
  4c:	e51b001c 	ldr	r0, [fp, #-28]
  50:	ebfffffe 	bl	0 <Java_com_UltimateImgSpider_WatchdogService_jniGetAshmem>
  54:	e50b0018 	str	r0, [fp, #-24]
	if(ashmNode!=NULL)
  58:	e51b3018 	ldr	r3, [fp, #-24]
  5c:	e3530000 	cmp	r3, #0
  60:	0a000011 	beq	ac <Java_com_UltimateImgSpider_WatchdogService_jniGetAshmem+0xac>
	{
		ashmNode->ashmem->ashmStat=ASHM_EXIST;
  64:	e51b3018 	ldr	r3, [fp, #-24]
  68:	e593302c 	ldr	r3, [r3, #44]	; 0x2c
  6c:	e3a02000 	mov	r2, #0
  70:	e3822078 	orr	r2, r2, #120	; 0x78
  74:	e5c32000 	strb	r2, [r3]
  78:	e3a02000 	mov	r2, #0
  7c:	e3822056 	orr	r2, r2, #86	; 0x56
  80:	e5c32001 	strb	r2, [r3, #1]
  84:	e3a02000 	mov	r2, #0
  88:	e3822034 	orr	r2, r2, #52	; 0x34
  8c:	e5c32002 	strb	r2, [r3, #2]
  90:	e3a02000 	mov	r2, #0
  94:	e3822012 	orr	r2, r2, #18
  98:	e5c32003 	strb	r2, [r3, #3]
		fd=ashmNode->fd;
  9c:	e51b3018 	ldr	r3, [fp, #-24]
  a0:	e5933028 	ldr	r3, [r3, #40]	; 0x28
  a4:	e50b3020 	str	r3, [fp, #-32]
  a8:	ea00007e 	b	2a8 <Java_com_UltimateImgSpider_WatchdogService_jniGetAshmem+0x2a8>
	}
	else
	{
		fd = ashmem_create_region(name, size+sizeof(u32));
  ac:	e51b3034 	ldr	r3, [fp, #-52]	; 0x34
  b0:	e2833004 	add	r3, r3, #4
  b4:	e51b001c 	ldr	r0, [fp, #-28]
  b8:	e1a01003 	mov	r1, r3
  bc:	ebfffffe 	bl	0 <Java_com_UltimateImgSpider_WatchdogService_jniGetAshmem>
  c0:	e50b0020 	str	r0, [fp, #-32]
		if (fd >= 0)
  c4:	e51b3020 	ldr	r3, [fp, #-32]
  c8:	e3530000 	cmp	r3, #0
  cc:	ba000075 	blt	2a8 <Java_com_UltimateImgSpider_WatchdogService_jniGetAshmem+0x2a8>
		{
			LOGI("create ashmem name:%s size:%d fd:%d success!", name, size, fd);
  d0:	e51b3034 	ldr	r3, [fp, #-52]	; 0x34
  d4:	e58d3000 	str	r3, [sp]
  d8:	e51b3020 	ldr	r3, [fp, #-32]
  dc:	e58d3004 	str	r3, [sp, #4]
  e0:	e3a00004 	mov	r0, #4
  e4:	e59f31ec 	ldr	r3, [pc, #492]	; 2d8 <Java_com_UltimateImgSpider_WatchdogService_jniGetAshmem+0x2d8>
  e8:	e08f3003 	add	r3, pc, r3
  ec:	e1a01003 	mov	r1, r3
  f0:	e59f31e4 	ldr	r3, [pc, #484]	; 2dc <Java_com_UltimateImgSpider_WatchdogService_jniGetAshmem+0x2dc>
  f4:	e08f3003 	add	r3, pc, r3
  f8:	e1a02003 	mov	r2, r3
  fc:	e51b301c 	ldr	r3, [fp, #-28]
 100:	ebfffffe 	bl	0 <__android_log_print>

			t_ashmBlock *ashm = mmap(NULL, size, PROT_READ | PROT_WRITE,
 104:	e51b3034 	ldr	r3, [fp, #-52]	; 0x34
 108:	e51b2020 	ldr	r2, [fp, #-32]
 10c:	e58d2000 	str	r2, [sp]
 110:	e3a02000 	mov	r2, #0
 114:	e58d2004 	str	r2, [sp, #4]
 118:	e3a00000 	mov	r0, #0
 11c:	e1a01003 	mov	r1, r3
 120:	e3a02003 	mov	r2, #3
 124:	e3a03001 	mov	r3, #1
 128:	ebfffffe 	bl	0 <mmap>
 12c:	e50b0014 	str	r0, [fp, #-20]
			MAP_SHARED, fd, 0);
			if (ashm != NULL)
 130:	e51b3014 	ldr	r3, [fp, #-20]
 134:	e3530000 	cmp	r3, #0
 138:	0a00005a 	beq	2a8 <Java_com_UltimateImgSpider_WatchdogService_jniGetAshmem+0x2a8>
			{
				t_ashmNode *newAshmNode=malloc(sizeof(t_ashmNode));
 13c:	e3a00034 	mov	r0, #52	; 0x34
 140:	ebfffffe 	bl	0 <malloc>
 144:	e1a03000 	mov	r3, r0
 148:	e50b3010 	str	r3, [fp, #-16]
				if(newAshmNode!=NULL)
 14c:	e51b3010 	ldr	r3, [fp, #-16]
 150:	e3530000 	cmp	r3, #0
 154:	0a000053 	beq	2a8 <Java_com_UltimateImgSpider_WatchdogService_jniGetAshmem+0x2a8>
				{
					ashm->ashmStat=0;
 158:	e51b3014 	ldr	r3, [fp, #-20]
 15c:	e3a02000 	mov	r2, #0
 160:	e5c32000 	strb	r2, [r3]
 164:	e3a02000 	mov	r2, #0
 168:	e5c32001 	strb	r2, [r3, #1]
 16c:	e3a02000 	mov	r2, #0
 170:	e5c32002 	strb	r2, [r3, #2]
 174:	e3a02000 	mov	r2, #0
 178:	e5c32003 	strb	r2, [r3, #3]
					newAshmNode->ashmem=ashm;
 17c:	e51b3010 	ldr	r3, [fp, #-16]
 180:	e51b2014 	ldr	r2, [fp, #-20]
 184:	e583202c 	str	r2, [r3, #44]	; 0x2c
					newAshmNode->fd=fd;
 188:	e51b3010 	ldr	r3, [fp, #-16]
 18c:	e51b2020 	ldr	r2, [fp, #-32]
 190:	e5832028 	str	r2, [r3, #40]	; 0x28
					strncpy(newAshmNode->name, name, ASHM_NAME_SIZE);
 194:	e51b3010 	ldr	r3, [fp, #-16]
 198:	e1a00003 	mov	r0, r3
 19c:	e51b101c 	ldr	r1, [fp, #-28]
 1a0:	e3a02020 	mov	r2, #32
 1a4:	ebfffffe 	bl	0 <strncpy>
					newAshmNode->next=NULL;
 1a8:	e51b3010 	ldr	r3, [fp, #-16]
 1ac:	e3a02000 	mov	r2, #0
 1b0:	e5832030 	str	r2, [r3, #48]	; 0x30
					newAshmNode->size=size;
 1b4:	e51b3010 	ldr	r3, [fp, #-16]
 1b8:	e51b2034 	ldr	r2, [fp, #-52]	; 0x34
 1bc:	e5832024 	str	r2, [r3, #36]	; 0x24

					if(ashmemChainHead==NULL)
 1c0:	e59f3118 	ldr	r3, [pc, #280]	; 2e0 <Java_com_UltimateImgSpider_WatchdogService_jniGetAshmem+0x2e0>
 1c4:	e7943003 	ldr	r3, [r4, r3]
 1c8:	e5933000 	ldr	r3, [r3]
 1cc:	e3530000 	cmp	r3, #0
 1d0:	1a000003 	bne	1e4 <Java_com_UltimateImgSpider_WatchdogService_jniGetAshmem+0x1e4>
					{
						ashmemChainHead=newAshmNode;
 1d4:	e59f3104 	ldr	r3, [pc, #260]	; 2e0 <Java_com_UltimateImgSpider_WatchdogService_jniGetAshmem+0x2e0>
 1d8:	e7943003 	ldr	r3, [r4, r3]
 1dc:	e51b2010 	ldr	r2, [fp, #-16]
 1e0:	e5832000 	str	r2, [r3]
					}

					if(ashmemChainTail!=NULL)
 1e4:	e59f30f8 	ldr	r3, [pc, #248]	; 2e4 <Java_com_UltimateImgSpider_WatchdogService_jniGetAshmem+0x2e4>
 1e8:	e7943003 	ldr	r3, [r4, r3]
 1ec:	e5933000 	ldr	r3, [r3]
 1f0:	e3530000 	cmp	r3, #0
 1f4:	0a000004 	beq	20c <Java_com_UltimateImgSpider_WatchdogService_jniGetAshmem+0x20c>
					{
						ashmemChainTail->next=newAshmNode;
 1f8:	e59f30e4 	ldr	r3, [pc, #228]	; 2e4 <Java_com_UltimateImgSpider_WatchdogService_jniGetAshmem+0x2e4>
 1fc:	e7943003 	ldr	r3, [r4, r3]
 200:	e5933000 	ldr	r3, [r3]
 204:	e51b2010 	ldr	r2, [fp, #-16]
 208:	e5832030 	str	r2, [r3, #48]	; 0x30
					}
					ashmemChainTail=newAshmNode;
 20c:	e59f30d0 	ldr	r3, [pc, #208]	; 2e4 <Java_com_UltimateImgSpider_WatchdogService_jniGetAshmem+0x2e4>
 210:	e7943003 	ldr	r3, [r4, r3]
 214:	e51b2010 	ldr	r2, [fp, #-16]
 218:	e5832000 	str	r2, [r3]


					LOGI("ashmem mmap %d to watchdog process success!", (u32 )ashm);
 21c:	e51bc014 	ldr	ip, [fp, #-20]
 220:	e3a00004 	mov	r0, #4
 224:	e59f30bc 	ldr	r3, [pc, #188]	; 2e8 <Java_com_UltimateImgSpider_WatchdogService_jniGetAshmem+0x2e8>
 228:	e08f3003 	add	r3, pc, r3
 22c:	e1a01003 	mov	r1, r3
 230:	e59f30b4 	ldr	r3, [pc, #180]	; 2ec <Java_com_UltimateImgSpider_WatchdogService_jniGetAshmem+0x2ec>
 234:	e08f3003 	add	r3, pc, r3
 238:	e1a02003 	mov	r2, r3
 23c:	e1a0300c 	mov	r3, ip
 240:	ebfffffe 	bl	0 <__android_log_print>

					if(strcmp(name, "ashmTest")==0)
 244:	e51b001c 	ldr	r0, [fp, #-28]
 248:	e59f30a0 	ldr	r3, [pc, #160]	; 2f0 <Java_com_UltimateImgSpider_WatchdogService_jniGetAshmem+0x2f0>
 24c:	e08f3003 	add	r3, pc, r3
 250:	e1a01003 	mov	r1, r3
 254:	ebfffffe 	bl	0 <strcmp>
 258:	e1a03000 	mov	r3, r0
 25c:	e3530000 	cmp	r3, #0
 260:	1a000010 	bne	2a8 <Java_com_UltimateImgSpider_WatchdogService_jniGetAshmem+0x2a8>
					{
						for(i=0; i<8; i++)
 264:	e3a03000 	mov	r3, #0
 268:	e50b3024 	str	r3, [fp, #-36]	; 0x24
 26c:	ea00000a 	b	29c <Java_com_UltimateImgSpider_WatchdogService_jniGetAshmem+0x29c>
						{
							ashm->data[i]=i;
 270:	e51b3024 	ldr	r3, [fp, #-36]	; 0x24
 274:	e6ef2073 	uxtb	r2, r3
 278:	e51b0014 	ldr	r0, [fp, #-20]
 27c:	e3a03004 	mov	r3, #4
 280:	e51b1024 	ldr	r1, [fp, #-36]	; 0x24
 284:	e0801001 	add	r1, r0, r1
 288:	e0813003 	add	r3, r1, r3
 28c:	e5c32000 	strb	r2, [r3]

					LOGI("ashmem mmap %d to watchdog process success!", (u32 )ashm);

					if(strcmp(name, "ashmTest")==0)
					{
						for(i=0; i<8; i++)
 290:	e51b3024 	ldr	r3, [fp, #-36]	; 0x24
 294:	e2833001 	add	r3, r3, #1
 298:	e50b3024 	str	r3, [fp, #-36]	; 0x24
 29c:	e51b3024 	ldr	r3, [fp, #-36]	; 0x24
 2a0:	e3530007 	cmp	r3, #7
 2a4:	dafffff1 	ble	270 <Java_com_UltimateImgSpider_WatchdogService_jniGetAshmem+0x270>
				}
			}
		}
	}

	(*env)->ReleaseStringUTFChars(env, jname, name);
 2a8:	e51b3028 	ldr	r3, [fp, #-40]	; 0x28
 2ac:	e5933000 	ldr	r3, [r3]
 2b0:	e59332a8 	ldr	r3, [r3, #680]	; 0x2a8
 2b4:	e51b0028 	ldr	r0, [fp, #-40]	; 0x28
 2b8:	e51b1030 	ldr	r1, [fp, #-48]	; 0x30
 2bc:	e51b201c 	ldr	r2, [fp, #-28]
 2c0:	e12fff33 	blx	r3

	return fd;
 2c4:	e51b3020 	ldr	r3, [fp, #-32]
}
 2c8:	e1a00003 	mov	r0, r3
 2cc:	e24bd008 	sub	sp, fp, #8
 2d0:	e8bd8810 	pop	{r4, fp, pc}
 2d4:	000002ac 	.word	0x000002ac
 2d8:	000001f4 	.word	0x000001f4
 2dc:	00000208 	.word	0x00000208
	...
 2e8:	000000c4 	.word	0x000000c4
 2ec:	00000108 	.word	0x00000108
 2f0:	00000120 	.word	0x00000120

Disassembly of section .text.spiderGetAshmemFromWatchdog:

00000000 <spiderGetAshmemFromWatchdog>:
jclass SpiderServiceClass=NULL;

jmethodID getAshmemFromWatchdogMID=NULL;

void* spiderGetAshmemFromWatchdog(JNIEnv* env, const char *name, int size)
{
   0:	e92d4810 	.word	0xe92d4810
   4:	e28db008 	add	fp, sp, #8
   8:	e24dd02c 	sub	sp, sp, #44	; 0x2c
   c:	e50b0020 	str	r0, [fp, #-32]
  10:	e50b1024 	str	r1, [fp, #-36]	; 0x24
  14:	e50b2028 	str	r2, [fp, #-40]	; 0x28
  18:	e59f4190 	ldr	r4, [pc, #400]	; 1b0 <spiderGetAshmemFromWatchdog+0x1b0>
  1c:	e08f4004 	add	r4, pc, r4
	void *ashmem=NULL;
  20:	e3a03000 	mov	r3, #0
  24:	e50b3018 	str	r3, [fp, #-24]

	LOGI("spiderGetAshmemFromWatchdog name:%s size:%d", name, size);
  28:	e51b3028 	ldr	r3, [fp, #-40]	; 0x28
  2c:	e58d3000 	str	r3, [sp]
  30:	e3a00004 	mov	r0, #4
  34:	e59f3178 	ldr	r3, [pc, #376]	; 1b4 <spiderGetAshmemFromWatchdog+0x1b4>
  38:	e08f3003 	add	r3, pc, r3
  3c:	e1a01003 	mov	r1, r3
  40:	e59f3170 	ldr	r3, [pc, #368]	; 1b8 <spiderGetAshmemFromWatchdog+0x1b8>
  44:	e08f3003 	add	r3, pc, r3
  48:	e1a02003 	mov	r2, r3
  4c:	e51b3024 	ldr	r3, [fp, #-36]	; 0x24
  50:	ebfffffe 	bl	0 <__android_log_print>

	if(getAshmemFromWatchdogMID==NULL)
  54:	e59f3160 	ldr	r3, [pc, #352]	; 1bc <spiderGetAshmemFromWatchdog+0x1bc>
  58:	e7943003 	ldr	r3, [r4, r3]
  5c:	e5933000 	ldr	r3, [r3]
  60:	e3530000 	cmp	r3, #0
  64:	1a000022 	bne	f4 <spiderGetAshmemFromWatchdog+0xf4>
	{
		SpiderServiceClass = (*env)->FindClass(env,
  68:	e51b3020 	ldr	r3, [fp, #-32]
  6c:	e5933000 	ldr	r3, [r3]
  70:	e5932018 	ldr	r2, [r3, #24]
  74:	e51b0020 	ldr	r0, [fp, #-32]
  78:	e59f3140 	ldr	r3, [pc, #320]	; 1c0 <spiderGetAshmemFromWatchdog+0x1c0>
  7c:	e08f3003 	add	r3, pc, r3
  80:	e1a01003 	mov	r1, r3
  84:	e12fff32 	blx	r2
  88:	e1a02000 	mov	r2, r0
  8c:	e59f3130 	ldr	r3, [pc, #304]	; 1c4 <spiderGetAshmemFromWatchdog+0x1c4>
  90:	e7943003 	ldr	r3, [r4, r3]
  94:	e5832000 	str	r2, [r3]
			"com/UltimateImgSpider/SpiderService");
		if (SpiderServiceClass != NULL)
  98:	e59f3124 	ldr	r3, [pc, #292]	; 1c4 <spiderGetAshmemFromWatchdog+0x1c4>
  9c:	e7943003 	ldr	r3, [r4, r3]
  a0:	e5933000 	ldr	r3, [r3]
  a4:	e3530000 	cmp	r3, #0
  a8:	0a000011 	beq	f4 <spiderGetAshmemFromWatchdog+0xf4>
		{
			getAshmemFromWatchdogMID = (*env)->GetMethodID(env, SpiderServiceClass, "getAshmemFromWatchdog",
  ac:	e51b3020 	ldr	r3, [fp, #-32]
  b0:	e5933000 	ldr	r3, [r3]
  b4:	e593c084 	ldr	ip, [r3, #132]	; 0x84
  b8:	e59f3104 	ldr	r3, [pc, #260]	; 1c4 <spiderGetAshmemFromWatchdog+0x1c4>
  bc:	e7943003 	ldr	r3, [r4, r3]
  c0:	e5933000 	ldr	r3, [r3]
  c4:	e51b0020 	ldr	r0, [fp, #-32]
  c8:	e1a01003 	mov	r1, r3
  cc:	e59f30f4 	ldr	r3, [pc, #244]	; 1c8 <spiderGetAshmemFromWatchdog+0x1c8>
  d0:	e08f3003 	add	r3, pc, r3
  d4:	e1a02003 	mov	r2, r3
  d8:	e59f30ec 	ldr	r3, [pc, #236]	; 1cc <spiderGetAshmemFromWatchdog+0x1cc>
  dc:	e08f3003 	add	r3, pc, r3
  e0:	e12fff3c 	blx	ip
  e4:	e1a02000 	mov	r2, r0
  e8:	e59f30cc 	ldr	r3, [pc, #204]	; 1bc <spiderGetAshmemFromWatchdog+0x1bc>
  ec:	e7943003 	ldr	r3, [r4, r3]
  f0:	e5832000 	str	r2, [r3]
					"(Ljava/lang/String;I)I");
		}
	}

	if (getAshmemFromWatchdogMID != NULL)
  f4:	e59f30c0 	ldr	r3, [pc, #192]	; 1bc <spiderGetAshmemFromWatchdog+0x1bc>
  f8:	e7943003 	ldr	r3, [r4, r3]
  fc:	e5933000 	ldr	r3, [r3]
 100:	e3530000 	cmp	r3, #0
 104:	0a000025 	beq	1a0 <spiderGetAshmemFromWatchdog+0x1a0>
	{
		jstring jname=(*env)->NewStringUTF(env, name);
 108:	e51b3020 	ldr	r3, [fp, #-32]
 10c:	e5933000 	ldr	r3, [r3]
 110:	e593329c 	ldr	r3, [r3, #668]	; 0x29c
 114:	e51b0020 	ldr	r0, [fp, #-32]
 118:	e51b1024 	ldr	r1, [fp, #-36]	; 0x24
 11c:	e12fff33 	blx	r3
 120:	e50b0014 	str	r0, [fp, #-20]
		int fd=(*env)->CallIntMethod(env, SpiderServiceInstance, getAshmemFromWatchdogMID, jname, size);
 124:	e51b3020 	ldr	r3, [fp, #-32]
 128:	e5933000 	ldr	r3, [r3]
 12c:	e593c0c4 	ldr	ip, [r3, #196]	; 0xc4
 130:	e59f3098 	ldr	r3, [pc, #152]	; 1d0 <spiderGetAshmemFromWatchdog+0x1d0>
 134:	e7943003 	ldr	r3, [r4, r3]
 138:	e5932000 	ldr	r2, [r3]
 13c:	e59f3078 	ldr	r3, [pc, #120]	; 1bc <spiderGetAshmemFromWatchdog+0x1bc>
 140:	e7943003 	ldr	r3, [r4, r3]
 144:	e5933000 	ldr	r3, [r3]
 148:	e51b1028 	ldr	r1, [fp, #-40]	; 0x28
 14c:	e58d1000 	str	r1, [sp]
 150:	e51b0020 	ldr	r0, [fp, #-32]
 154:	e1a01002 	mov	r1, r2
 158:	e1a02003 	mov	r2, r3
 15c:	e51b3014 	ldr	r3, [fp, #-20]
 160:	e12fff3c 	blx	ip
 164:	e50b0010 	str	r0, [fp, #-16]
		if(fd>=0)
 168:	e51b3010 	ldr	r3, [fp, #-16]
 16c:	e3530000 	cmp	r3, #0
 170:	ba00000a 	blt	1a0 <spiderGetAshmemFromWatchdog+0x1a0>
		{
			ashmem=mmap(NULL, size, PROT_READ | PROT_WRITE,
 174:	e51b3028 	ldr	r3, [fp, #-40]	; 0x28
 178:	e51b2010 	ldr	r2, [fp, #-16]
 17c:	e58d2000 	str	r2, [sp]
 180:	e3a02000 	mov	r2, #0
 184:	e58d2004 	str	r2, [sp, #4]
 188:	e3a00000 	mov	r0, #0
 18c:	e1a01003 	mov	r1, r3
 190:	e3a02003 	mov	r2, #3
 194:	e3a03001 	mov	r3, #1
 198:	ebfffffe 	bl	0 <mmap>
 19c:	e50b0018 	str	r0, [fp, #-24]
						MAP_SHARED, fd, 0);
		}

	}
	return ashmem;
 1a0:	e51b3018 	ldr	r3, [fp, #-24]
}
 1a4:	e1a00003 	mov	r0, r3
 1a8:	e24bd008 	sub	sp, fp, #8
 1ac:	e8bd8810 	pop	{r4, fp, pc}
 1b0:	0000018c 	.word	0x0000018c
 1b4:	00000180 	.word	0x00000180
 1b8:	000001fc 	.word	0x000001fc
 1bc:	00000000 	.word	0x00000000
 1c0:	000001f8 	.word	0x000001f8
 1c4:	00000000 	.word	0x00000000
 1c8:	000001d0 	.word	0x000001d0
 1cc:	000001e0 	.word	0x000001e0
 1d0:	00000000 	.word	0x00000000

Disassembly of section .text.ashmemTest:

00000000 <ashmemTest>:




void ashmemTest(JNIEnv* env)
{
   0:	e92d4800 	.word	0xe92d4800
   4:	e28db004 	add	fp, sp, #4
   8:	e24dd010 	sub	sp, sp, #16
   c:	e50b0010 	str	r0, [fp, #-16]
	t_ashmBlock *ashm=spiderGetAshmemFromWatchdog(env, "ashmTest", 32);
  10:	e51b0010 	ldr	r0, [fp, #-16]
  14:	e59f30e8 	ldr	r3, [pc, #232]	; 104 <ashmemTest+0x104>
  18:	e08f3003 	add	r3, pc, r3
  1c:	e1a01003 	mov	r1, r3
  20:	e3a02020 	mov	r2, #32
  24:	ebfffffe 	bl	0 <ashmemTest>
  28:	e50b0008 	str	r0, [fp, #-8]

	if(ashm!=NULL)
  2c:	e51b3008 	ldr	r3, [fp, #-8]
  30:	e3530000 	cmp	r3, #0
  34:	0a000030 	beq	fc <ashmemTest+0xfc>
	{
		u8 i;
		for(i=0; i<8; i++)
  38:	e3a03000 	mov	r3, #0
  3c:	e54b3009 	strb	r3, [fp, #-9]
  40:	ea000012 	b	90 <ashmemTest+0x90>
		{
			LOGI("%d", ashm->data[i]);
  44:	e55b2009 	ldrb	r2, [fp, #-9]
  48:	e51b1008 	ldr	r1, [fp, #-8]
  4c:	e3a03004 	mov	r3, #4
  50:	e0812002 	add	r2, r1, r2
  54:	e0823003 	add	r3, r2, r3
  58:	e5d33000 	ldrb	r3, [r3]
  5c:	e1a0c003 	mov	ip, r3
  60:	e3a00004 	mov	r0, #4
  64:	e59f309c 	ldr	r3, [pc, #156]	; 108 <ashmemTest+0x108>
  68:	e08f3003 	add	r3, pc, r3
  6c:	e1a01003 	mov	r1, r3
  70:	e59f3094 	ldr	r3, [pc, #148]	; 10c <ashmemTest+0x10c>
  74:	e08f3003 	add	r3, pc, r3
  78:	e1a02003 	mov	r2, r3
  7c:	e1a0300c 	mov	r3, ip
  80:	ebfffffe 	bl	0 <__android_log_print>
	t_ashmBlock *ashm=spiderGetAshmemFromWatchdog(env, "ashmTest", 32);

	if(ashm!=NULL)
	{
		u8 i;
		for(i=0; i<8; i++)
  84:	e55b3009 	ldrb	r3, [fp, #-9]
  88:	e2833001 	add	r3, r3, #1
  8c:	e54b3009 	strb	r3, [fp, #-9]
  90:	e55b3009 	ldrb	r3, [fp, #-9]
  94:	e3530007 	cmp	r3, #7
  98:	9affffe9 	bls	44 <ashmemTest+0x44>
		{
			LOGI("%d", ashm->data[i]);
		}
		if(ashm->ashmStat==ASHM_EXIST)
  9c:	e51b3008 	ldr	r3, [fp, #-8]
  a0:	e5d32000 	ldrb	r2, [r3]
  a4:	e5d31001 	ldrb	r1, [r3, #1]
  a8:	e1a01401 	lsl	r1, r1, #8
  ac:	e1812002 	orr	r2, r1, r2
  b0:	e5d31002 	ldrb	r1, [r3, #2]
  b4:	e1a01801 	lsl	r1, r1, #16
  b8:	e1812002 	orr	r2, r1, r2
  bc:	e5d33003 	ldrb	r3, [r3, #3]
  c0:	e1a03c03 	lsl	r3, r3, #24
  c4:	e1833002 	orr	r3, r3, r2
  c8:	e1a02003 	mov	r2, r3
  cc:	e3053678 	movw	r3, #22136	; 0x5678
  d0:	e3413234 	movt	r3, #4660	; 0x1234
  d4:	e1520003 	cmp	r2, r3
  d8:	1a000007 	bne	fc <ashmemTest+0xfc>
		{
			LOGI("ashmem already exist");
  dc:	e3a00004 	mov	r0, #4
  e0:	e59f3028 	ldr	r3, [pc, #40]	; 110 <ashmemTest+0x110>
  e4:	e08f3003 	add	r3, pc, r3
  e8:	e1a01003 	mov	r1, r3
  ec:	e59f3020 	ldr	r3, [pc, #32]	; 114 <ashmemTest+0x114>
  f0:	e08f3003 	add	r3, pc, r3
  f4:	e1a02003 	mov	r2, r3
  f8:	ebfffffe 	bl	0 <__android_log_print>
		}
	}
}
  fc:	e24bd004 	sub	sp, fp, #4
 100:	e8bd8800 	pop	{fp, pc}
 104:	00000168 	.word	0x00000168
 108:	000000a4 	.word	0x000000a4
 10c:	000001a0 	.word	0x000001a0
 110:	00000030 	.word	0x00000030
 114:	00000130 	.word	0x00000130

Disassembly of section .text.Java_com_UltimateImgSpider_SpiderService_stringFromJNI:

00000000 <Java_com_UltimateImgSpider_SpiderService_stringFromJNI>:



jstring Java_com_UltimateImgSpider_SpiderService_stringFromJNI(JNIEnv* env,
		jobject thiz, jstring jSrcStr)
{
   0:	e92d4810 	.word	0xe92d4810
   4:	e28db008 	add	fp, sp, #8
   8:	e24dd01c 	sub	sp, sp, #28
   c:	e50b0018 	str	r0, [fp, #-24]
  10:	e50b101c 	str	r1, [fp, #-28]
  14:	e50b2020 	str	r2, [fp, #-32]
  18:	e59f40c8 	ldr	r4, [pc, #200]	; e8 <Java_com_UltimateImgSpider_SpiderService_stringFromJNI+0xe8>
  1c:	e08f4004 	add	r4, pc, r4
	int i;
	const u8 *srcStr = (*env)->GetStringUTFChars(env, jSrcStr, NULL);
  20:	e51b3018 	ldr	r3, [fp, #-24]
  24:	e5933000 	ldr	r3, [r3]
  28:	e59332a4 	ldr	r3, [r3, #676]	; 0x2a4
  2c:	e51b0018 	ldr	r0, [fp, #-24]
  30:	e51b1020 	ldr	r1, [fp, #-32]
  34:	e3a02000 	mov	r2, #0
  38:	e12fff33 	blx	r3
  3c:	e50b0010 	str	r0, [fp, #-16]
	LOGI("stringFromJNI %s", srcStr);
  40:	e3a00004 	mov	r0, #4
  44:	e59f30a0 	ldr	r3, [pc, #160]	; ec <Java_com_UltimateImgSpider_SpiderService_stringFromJNI+0xec>
  48:	e08f3003 	add	r3, pc, r3
  4c:	e1a01003 	mov	r1, r3
  50:	e59f3098 	ldr	r3, [pc, #152]	; f0 <Java_com_UltimateImgSpider_SpiderService_stringFromJNI+0xf0>
  54:	e08f3003 	add	r3, pc, r3
  58:	e1a02003 	mov	r2, r3
  5c:	e51b3010 	ldr	r3, [fp, #-16]
  60:	ebfffffe 	bl	0 <__android_log_print>

	SpiderServiceInstance=thiz;
  64:	e59f3088 	ldr	r3, [pc, #136]	; f4 <Java_com_UltimateImgSpider_SpiderService_stringFromJNI+0xf4>
  68:	e7943003 	ldr	r3, [r4, r3]
  6c:	e51b201c 	ldr	r2, [fp, #-28]
  70:	e5832000 	str	r2, [r3]

	//ashmemTest(env);

	if((*env)->ExceptionOccurred(env)) {
  74:	e51b3018 	ldr	r3, [fp, #-24]
  78:	e5933000 	ldr	r3, [r3]
  7c:	e593303c 	ldr	r3, [r3, #60]	; 0x3c
  80:	e51b0018 	ldr	r0, [fp, #-24]
  84:	e12fff33 	blx	r3
  88:	e1a03000 	mov	r3, r0
  8c:	e3530000 	cmp	r3, #0
  90:	0a000001 	beq	9c <Java_com_UltimateImgSpider_SpiderService_stringFromJNI+0x9c>
	   return NULL;
  94:	e3a03000 	mov	r3, #0
  98:	ea00000f 	b	dc <Java_com_UltimateImgSpider_SpiderService_stringFromJNI+0xdc>
	}

	(*env)->ReleaseStringUTFChars(env, jSrcStr, srcStr);
  9c:	e51b3018 	ldr	r3, [fp, #-24]
  a0:	e5933000 	ldr	r3, [r3]
  a4:	e59332a8 	ldr	r3, [r3, #680]	; 0x2a8
  a8:	e51b0018 	ldr	r0, [fp, #-24]
  ac:	e51b1020 	ldr	r1, [fp, #-32]
  b0:	e51b2010 	ldr	r2, [fp, #-16]
  b4:	e12fff33 	blx	r3
	return (*env)->NewStringUTF(env, "test jni !");
  b8:	e51b3018 	ldr	r3, [fp, #-24]
  bc:	e5933000 	ldr	r3, [r3]
  c0:	e593229c 	ldr	r2, [r3, #668]	; 0x29c
  c4:	e51b0018 	ldr	r0, [fp, #-24]
  c8:	e59f3028 	ldr	r3, [pc, #40]	; f8 <Java_com_UltimateImgSpider_SpiderService_stringFromJNI+0xf8>
  cc:	e08f3003 	add	r3, pc, r3
  d0:	e1a01003 	mov	r1, r3
  d4:	e12fff32 	blx	r2
  d8:	e1a03000 	mov	r3, r0
}
  dc:	e1a00003 	mov	r0, r3
  e0:	e24bd008 	sub	sp, fp, #8
  e4:	e8bd8810 	pop	{r4, fp, pc}
  e8:	000000c4 	.word	0x000000c4
  ec:	000000a8 	.word	0x000000a8
  f0:	000001c0 	.word	0x000001c0
  f4:	00000000 	.word	0x00000000
  f8:	00000164 	.word	0x00000164

Disassembly of section .text.nodeAddrAbsToRelative:

00000000 <nodeAddrAbsToRelative>:

t_urlPool *firstUrlPool = NULL;


void nodeAddrAbsToRelative(urlNode *node, urlNodeRelativeAddr *RelativeAddr)
{
   0:	e52db004 	push	{fp}		; (str fp, [sp, #-4]!)
   4:	e28db000 	add	fp, sp, #0
   8:	e24dd01c 	sub	sp, sp, #28
   c:	e50b0018 	str	r0, [fp, #-24]
  10:	e50b101c 	str	r1, [fp, #-28]
  14:	e59f31a4 	ldr	r3, [pc, #420]	; 1c0 <nodeAddrAbsToRelative+0x1c0>
  18:	e08f3003 	add	r3, pc, r3
	if(node!=NULL)
  1c:	e51b2018 	ldr	r2, [fp, #-24]
  20:	e3520000 	cmp	r2, #0
  24:	0a000057 	beq	188 <nodeAddrAbsToRelative+0x188>
	{
		t_urlPool *pool=firstUrlPool;
  28:	e59f2194 	ldr	r2, [pc, #404]	; 1c4 <nodeAddrAbsToRelative+0x1c4>
  2c:	e7933002 	ldr	r3, [r3, r2]
  30:	e5933000 	ldr	r3, [r3]
  34:	e50b3014 	str	r3, [fp, #-20]
		u32 i=0;
  38:	e3a03000 	mov	r3, #0
  3c:	e50b3010 	str	r3, [fp, #-16]

		while(pool!=NULL)
  40:	ea00004c 	b	178 <nodeAddrAbsToRelative+0x178>
		{
			s64 ofs=(u32)node-(u32)pool;
  44:	e51b2018 	ldr	r2, [fp, #-24]
  48:	e51b3014 	ldr	r3, [fp, #-20]
  4c:	e0631002 	rsb	r1, r3, r2
  50:	e1a02001 	mov	r2, r1
  54:	e3a03000 	mov	r3, #0
  58:	e14b20fc 	strd	r2, [fp, #-12]
			if(ofs>=0&&ofs<sizeof(t_urlPool))
  5c:	e14b20dc 	ldrd	r2, [fp, #-12]
  60:	e3520000 	cmp	r2, #0
  64:	e2d31000 	sbcs	r1, r3, #0
  68:	ba00002b 	blt	11c <nodeAddrAbsToRelative+0x11c>
  6c:	e14b20dc 	ldrd	r2, [fp, #-12]
  70:	e28f1d05 	add	r1, pc, #320	; 0x140
  74:	e1c100d0 	ldrd	r0, [r1]
  78:	e1500002 	cmp	r0, r2
  7c:	e0d1c003 	sbcs	ip, r1, r3
  80:	ba000025 	blt	11c <nodeAddrAbsToRelative+0x11c>
			{
				RelativeAddr->poolPtr=i;
  84:	e51b301c 	ldr	r3, [fp, #-28]
  88:	e55b2010 	ldrb	r2, [fp, #-16]
  8c:	e3a01000 	mov	r1, #0
  90:	e1812002 	orr	r2, r1, r2
  94:	e5c32000 	strb	r2, [r3]
  98:	e55b200f 	ldrb	r2, [fp, #-15]
  9c:	e3a01000 	mov	r1, #0
  a0:	e1812002 	orr	r2, r1, r2
  a4:	e5c32001 	strb	r2, [r3, #1]
  a8:	e55b200e 	ldrb	r2, [fp, #-14]
  ac:	e3a01000 	mov	r1, #0
  b0:	e1812002 	orr	r2, r1, r2
  b4:	e5c32002 	strb	r2, [r3, #2]
  b8:	e55b200d 	ldrb	r2, [fp, #-13]
  bc:	e3a01000 	mov	r1, #0
  c0:	e1812002 	orr	r2, r1, r2
  c4:	e5c32003 	strb	r2, [r3, #3]
				RelativeAddr->offset=ofs;
  c8:	e51b200c 	ldr	r2, [fp, #-12]
  cc:	e51b301c 	ldr	r3, [fp, #-28]
  d0:	e6ef1072 	uxtb	r1, r2
  d4:	e3a00000 	mov	r0, #0
  d8:	e1801001 	orr	r1, r0, r1
  dc:	e5c31004 	strb	r1, [r3, #4]
  e0:	e1a01422 	lsr	r1, r2, #8
  e4:	e6ef1071 	uxtb	r1, r1
  e8:	e3a00000 	mov	r0, #0
  ec:	e1801001 	orr	r1, r0, r1
  f0:	e5c31005 	strb	r1, [r3, #5]
  f4:	e1a01822 	lsr	r1, r2, #16
  f8:	e6ef1071 	uxtb	r1, r1
  fc:	e3a00000 	mov	r0, #0
 100:	e1801001 	orr	r1, r0, r1
 104:	e5c31006 	strb	r1, [r3, #6]
 108:	e1a02c22 	lsr	r2, r2, #24
 10c:	e3a01000 	mov	r1, #0
 110:	e1812002 	orr	r2, r1, r2
 114:	e5c32007 	strb	r2, [r3, #7]
				return;
 118:	ea000023 	b	1ac <nodeAddrAbsToRelative+0x1ac>
			}
			pool=pool->next;
 11c:	e51b3014 	ldr	r3, [fp, #-20]
 120:	e30f2ff8 	movw	r2, #65528	; 0xfff8
 124:	e340200f 	movt	r2, #15
 128:	e7d31002 	ldrb	r1, [r3, r2]
 12c:	e30f2ff9 	movw	r2, #65529	; 0xfff9
 130:	e340200f 	movt	r2, #15
 134:	e7d32002 	ldrb	r2, [r3, r2]
 138:	e1a02402 	lsl	r2, r2, #8
 13c:	e1821001 	orr	r1, r2, r1
 140:	e30f2ffa 	movw	r2, #65530	; 0xfffa
 144:	e340200f 	movt	r2, #15
 148:	e7d32002 	ldrb	r2, [r3, r2]
 14c:	e1a02802 	lsl	r2, r2, #16
 150:	e1821001 	orr	r1, r2, r1
 154:	e30f2ffb 	movw	r2, #65531	; 0xfffb
 158:	e340200f 	movt	r2, #15
 15c:	e7d33002 	ldrb	r3, [r3, r2]
 160:	e1a03c03 	lsl	r3, r3, #24
 164:	e1833001 	orr	r3, r3, r1
 168:	e50b3014 	str	r3, [fp, #-20]
			i++;
 16c:	e51b3010 	ldr	r3, [fp, #-16]
 170:	e2833001 	add	r3, r3, #1
 174:	e50b3010 	str	r3, [fp, #-16]
	if(node!=NULL)
	{
		t_urlPool *pool=firstUrlPool;
		u32 i=0;

		while(pool!=NULL)
 178:	e51b3014 	ldr	r3, [fp, #-20]
 17c:	e3530000 	cmp	r3, #0
 180:	1affffaf 	bne	44 <nodeAddrAbsToRelative+0x44>
 184:	ea000008 	b	1ac <nodeAddrAbsToRelative+0x1ac>
			i++;
		}
	}
	else
	{
		RelativeAddr->poolPtr=POOL_PTR_INVALID;
 188:	e51b301c 	ldr	r3, [fp, #-28]
 18c:	e3e02000 	mvn	r2, #0
 190:	e5c32000 	strb	r2, [r3]
 194:	e3e02000 	mvn	r2, #0
 198:	e5c32001 	strb	r2, [r3, #1]
 19c:	e3e02000 	mvn	r2, #0
 1a0:	e5c32002 	strb	r2, [r3, #2]
 1a4:	e3e02000 	mvn	r2, #0
 1a8:	e5c32003 	strb	r2, [r3, #3]
	}
}
 1ac:	e28bd000 	add	sp, fp, #0
 1b0:	e8bd0800 	pop	{fp}
 1b4:	e12fff1e 	bx	lr
 1b8:	000ffffb 	.word	0x000ffffb
 1bc:	00000000 	.word	0x00000000
 1c0:	000001a0 	.word	0x000001a0
 1c4:	00000000 	.word	0x00000000

Disassembly of section .text.nodeAddrRelativeToAbs:

00000000 <nodeAddrRelativeToAbs>:

urlNode *nodeAddrRelativeToAbs(urlNodeRelativeAddr *RelativeAddr)
{
   0:	e52db004 	push	{fp}		; (str fp, [sp, #-4]!)
   4:	e28db000 	add	fp, sp, #0
   8:	e24dd014 	sub	sp, sp, #20
   c:	e50b0010 	str	r0, [fp, #-16]
  10:	e59f31e0 	ldr	r3, [pc, #480]	; 1f8 <nodeAddrRelativeToAbs+0x1f8>
  14:	e08f3003 	add	r3, pc, r3
	t_urlPool *pool=firstUrlPool;
  18:	e59f21dc 	ldr	r2, [pc, #476]	; 1fc <nodeAddrRelativeToAbs+0x1fc>
  1c:	e7933002 	ldr	r3, [r3, r2]
  20:	e5933000 	ldr	r3, [r3]
  24:	e50b300c 	str	r3, [fp, #-12]
	u32 i=0;
  28:	e3a03000 	mov	r3, #0
  2c:	e50b3008 	str	r3, [fp, #-8]

	if(pool!=NULL)
  30:	e51b300c 	ldr	r3, [fp, #-12]
  34:	e3530000 	cmp	r3, #0
  38:	0a000069 	beq	1e4 <nodeAddrRelativeToAbs+0x1e4>
	{
		while(pool->next!=NULL&&i<RelativeAddr->poolPtr)
  3c:	ea000016 	b	9c <nodeAddrRelativeToAbs+0x9c>
		{
			pool=pool->next;
  40:	e51b300c 	ldr	r3, [fp, #-12]
  44:	e30f2ff8 	movw	r2, #65528	; 0xfff8
  48:	e340200f 	movt	r2, #15
  4c:	e7d31002 	ldrb	r1, [r3, r2]
  50:	e30f2ff9 	movw	r2, #65529	; 0xfff9
  54:	e340200f 	movt	r2, #15
  58:	e7d32002 	ldrb	r2, [r3, r2]
  5c:	e1a02402 	lsl	r2, r2, #8
  60:	e1821001 	orr	r1, r2, r1
  64:	e30f2ffa 	movw	r2, #65530	; 0xfffa
  68:	e340200f 	movt	r2, #15
  6c:	e7d32002 	ldrb	r2, [r3, r2]
  70:	e1a02802 	lsl	r2, r2, #16
  74:	e1821001 	orr	r1, r2, r1
  78:	e30f2ffb 	movw	r2, #65531	; 0xfffb
  7c:	e340200f 	movt	r2, #15
  80:	e7d33002 	ldrb	r3, [r3, r2]
  84:	e1a03c03 	lsl	r3, r3, #24
  88:	e1833001 	orr	r3, r3, r1
  8c:	e50b300c 	str	r3, [fp, #-12]
			i++;
  90:	e51b3008 	ldr	r3, [fp, #-8]
  94:	e2833001 	add	r3, r3, #1
  98:	e50b3008 	str	r3, [fp, #-8]
	t_urlPool *pool=firstUrlPool;
	u32 i=0;

	if(pool!=NULL)
	{
		while(pool->next!=NULL&&i<RelativeAddr->poolPtr)
  9c:	e51b300c 	ldr	r3, [fp, #-12]
  a0:	e30f2ff8 	movw	r2, #65528	; 0xfff8
  a4:	e340200f 	movt	r2, #15
  a8:	e7d31002 	ldrb	r1, [r3, r2]
  ac:	e30f2ff9 	movw	r2, #65529	; 0xfff9
  b0:	e340200f 	movt	r2, #15
  b4:	e7d32002 	ldrb	r2, [r3, r2]
  b8:	e1a02402 	lsl	r2, r2, #8
  bc:	e1821001 	orr	r1, r2, r1
  c0:	e30f2ffa 	movw	r2, #65530	; 0xfffa
  c4:	e340200f 	movt	r2, #15
  c8:	e7d32002 	ldrb	r2, [r3, r2]
  cc:	e1a02802 	lsl	r2, r2, #16
  d0:	e1821001 	orr	r1, r2, r1
  d4:	e30f2ffb 	movw	r2, #65531	; 0xfffb
  d8:	e340200f 	movt	r2, #15
  dc:	e7d33002 	ldrb	r3, [r3, r2]
  e0:	e1a03c03 	lsl	r3, r3, #24
  e4:	e1833001 	orr	r3, r3, r1
  e8:	e3530000 	cmp	r3, #0
  ec:	0a00000e 	beq	12c <nodeAddrRelativeToAbs+0x12c>
  f0:	e51b3010 	ldr	r3, [fp, #-16]
  f4:	e5d32000 	ldrb	r2, [r3]
  f8:	e5d31001 	ldrb	r1, [r3, #1]
  fc:	e1a01401 	lsl	r1, r1, #8
 100:	e1812002 	orr	r2, r1, r2
 104:	e5d31002 	ldrb	r1, [r3, #2]
 108:	e1a01801 	lsl	r1, r1, #16
 10c:	e1812002 	orr	r2, r1, r2
 110:	e5d33003 	ldrb	r3, [r3, #3]
 114:	e1a03c03 	lsl	r3, r3, #24
 118:	e1833002 	orr	r3, r3, r2
 11c:	e1a02003 	mov	r2, r3
 120:	e51b3008 	ldr	r3, [fp, #-8]
 124:	e1520003 	cmp	r2, r3
 128:	8affffc4 	bhi	40 <nodeAddrRelativeToAbs+0x40>
		{
			pool=pool->next;
			i++;
		}

		if(i==RelativeAddr->poolPtr&&RelativeAddr->offset<sizeof(t_urlPool))
 12c:	e51b3010 	ldr	r3, [fp, #-16]
 130:	e5d32000 	ldrb	r2, [r3]
 134:	e5d31001 	ldrb	r1, [r3, #1]
 138:	e1a01401 	lsl	r1, r1, #8
 13c:	e1812002 	orr	r2, r1, r2
 140:	e5d31002 	ldrb	r1, [r3, #2]
 144:	e1a01801 	lsl	r1, r1, #16
 148:	e1812002 	orr	r2, r1, r2
 14c:	e5d33003 	ldrb	r3, [r3, #3]
 150:	e1a03c03 	lsl	r3, r3, #24
 154:	e1833002 	orr	r3, r3, r2
 158:	e1a02003 	mov	r2, r3
 15c:	e51b3008 	ldr	r3, [fp, #-8]
 160:	e1520003 	cmp	r2, r3
 164:	1a00001e 	bne	1e4 <nodeAddrRelativeToAbs+0x1e4>
 168:	e51b3010 	ldr	r3, [fp, #-16]
 16c:	e5d32004 	ldrb	r2, [r3, #4]
 170:	e5d31005 	ldrb	r1, [r3, #5]
 174:	e1a01401 	lsl	r1, r1, #8
 178:	e1812002 	orr	r2, r1, r2
 17c:	e5d31006 	ldrb	r1, [r3, #6]
 180:	e1a01801 	lsl	r1, r1, #16
 184:	e1812002 	orr	r2, r1, r2
 188:	e5d33007 	ldrb	r3, [r3, #7]
 18c:	e1a03c03 	lsl	r3, r3, #24
 190:	e1833002 	orr	r3, r3, r2
 194:	e1a02003 	mov	r2, r3
 198:	e30f3ffb 	movw	r3, #65531	; 0xfffb
 19c:	e340300f 	movt	r3, #15
 1a0:	e1520003 	cmp	r2, r3
 1a4:	8a00000e 	bhi	1e4 <nodeAddrRelativeToAbs+0x1e4>
		{
			return (urlNode *)(((u32)pool)+RelativeAddr->offset);
 1a8:	e51b3010 	ldr	r3, [fp, #-16]
 1ac:	e5d32004 	ldrb	r2, [r3, #4]
 1b0:	e5d31005 	ldrb	r1, [r3, #5]
 1b4:	e1a01401 	lsl	r1, r1, #8
 1b8:	e1812002 	orr	r2, r1, r2
 1bc:	e5d31006 	ldrb	r1, [r3, #6]
 1c0:	e1a01801 	lsl	r1, r1, #16
 1c4:	e1812002 	orr	r2, r1, r2
 1c8:	e5d33007 	ldrb	r3, [r3, #7]
 1cc:	e1a03c03 	lsl	r3, r3, #24
 1d0:	e1833002 	orr	r3, r3, r2
 1d4:	e1a02003 	mov	r2, r3
 1d8:	e51b300c 	ldr	r3, [fp, #-12]
 1dc:	e0823003 	add	r3, r2, r3
 1e0:	ea000000 	b	1e8 <nodeAddrRelativeToAbs+0x1e8>
		}
	}

	return NULL;
 1e4:	e3a03000 	mov	r3, #0
}
 1e8:	e1a00003 	mov	r0, r3
 1ec:	e28bd000 	add	sp, fp, #0
 1f0:	e8bd0800 	pop	{fp}
 1f4:	e12fff1e 	bx	lr
 1f8:	000001dc 	.word	0x000001dc
 1fc:	00000000 	.word	0x00000000

Disassembly of section .text.isRelativeAddrEqu:

00000000 <isRelativeAddrEqu>:

bool isRelativeAddrEqu(urlNodeRelativeAddr *src, urlNodeRelativeAddr *dst)
{
   0:	e52db004 	push	{fp}		; (str fp, [sp, #-4]!)
   4:	e28db000 	add	fp, sp, #0
   8:	e24dd00c 	sub	sp, sp, #12
   c:	e50b0008 	str	r0, [fp, #-8]
  10:	e50b100c 	str	r1, [fp, #-12]
	return src->poolPtr==dst->poolPtr && src->offset==dst->offset;
  14:	e51b3008 	ldr	r3, [fp, #-8]
  18:	e5d32000 	ldrb	r2, [r3]
  1c:	e5d31001 	ldrb	r1, [r3, #1]
  20:	e1a01401 	lsl	r1, r1, #8
  24:	e1812002 	orr	r2, r1, r2
  28:	e5d31002 	ldrb	r1, [r3, #2]
  2c:	e1a01801 	lsl	r1, r1, #16
  30:	e1812002 	orr	r2, r1, r2
  34:	e5d33003 	ldrb	r3, [r3, #3]
  38:	e1a03c03 	lsl	r3, r3, #24
  3c:	e1833002 	orr	r3, r3, r2
  40:	e1a02003 	mov	r2, r3
  44:	e51b300c 	ldr	r3, [fp, #-12]
  48:	e5d31000 	ldrb	r1, [r3]
  4c:	e5d30001 	ldrb	r0, [r3, #1]
  50:	e1a00400 	lsl	r0, r0, #8
  54:	e1801001 	orr	r1, r0, r1
  58:	e5d30002 	ldrb	r0, [r3, #2]
  5c:	e1a00800 	lsl	r0, r0, #16
  60:	e1801001 	orr	r1, r0, r1
  64:	e5d33003 	ldrb	r3, [r3, #3]
  68:	e1a03c03 	lsl	r3, r3, #24
  6c:	e1833001 	orr	r3, r3, r1
  70:	e1520003 	cmp	r2, r3
  74:	1a00001a 	bne	e4 <isRelativeAddrEqu+0xe4>
  78:	e51b3008 	ldr	r3, [fp, #-8]
  7c:	e5d32004 	ldrb	r2, [r3, #4]
  80:	e5d31005 	ldrb	r1, [r3, #5]
  84:	e1a01401 	lsl	r1, r1, #8
  88:	e1812002 	orr	r2, r1, r2
  8c:	e5d31006 	ldrb	r1, [r3, #6]
  90:	e1a01801 	lsl	r1, r1, #16
  94:	e1812002 	orr	r2, r1, r2
  98:	e5d33007 	ldrb	r3, [r3, #7]
  9c:	e1a03c03 	lsl	r3, r3, #24
  a0:	e1833002 	orr	r3, r3, r2
  a4:	e1a02003 	mov	r2, r3
  a8:	e51b300c 	ldr	r3, [fp, #-12]
  ac:	e5d31004 	ldrb	r1, [r3, #4]
  b0:	e5d30005 	ldrb	r0, [r3, #5]
  b4:	e1a00400 	lsl	r0, r0, #8
  b8:	e1801001 	orr	r1, r0, r1
  bc:	e5d30006 	ldrb	r0, [r3, #6]
  c0:	e1a00800 	lsl	r0, r0, #16
  c4:	e1801001 	orr	r1, r0, r1
  c8:	e5d33007 	ldrb	r3, [r3, #7]
  cc:	e1a03c03 	lsl	r3, r3, #24
  d0:	e1833001 	orr	r3, r3, r1
  d4:	e1520003 	cmp	r2, r3
  d8:	1a000001 	bne	e4 <isRelativeAddrEqu+0xe4>
  dc:	e3a03001 	mov	r3, #1
  e0:	ea000000 	b	e8 <isRelativeAddrEqu+0xe8>
  e4:	e3a03000 	mov	r3, #0
  e8:	e6ef3073 	uxtb	r3, r3
}
  ec:	e1a00003 	mov	r0, r3
  f0:	e28bd000 	add	sp, fp, #0
  f4:	e8bd0800 	pop	{fp}
  f8:	e12fff1e 	bx	lr

Disassembly of section .text.urlTreeLeftRotate:

00000000 <urlTreeLeftRotate>:
   0:	e92d4800 	push	{fp, lr}
   4:	e28db004 	add	fp, sp, #4
   8:	e24dd020 	sub	sp, sp, #32
   c:	e50b0020 	str	r0, [fp, #-32]
  10:	e50b1024 	str	r1, [fp, #-36]	; 0x24
  14:	e51b3024 	ldr	r3, [fp, #-36]	; 0x24
  18:	e24b1014 	sub	r1, fp, #20
  1c:	e283201c 	add	r2, r3, #28
  20:	e3a03008 	mov	r3, #8
  24:	e1a00001 	mov	r0, r1
  28:	e1a01002 	mov	r1, r2
  2c:	e1a02003 	mov	r2, r3
  30:	ebfffffe 	bl	0 <memcpy>
  34:	e24b3014 	sub	r3, fp, #20
  38:	e1a00003 	mov	r0, r3
  3c:	ebfffffe 	bl	0 <urlTreeLeftRotate>
  40:	e50b0018 	str	r0, [fp, #-24]
  44:	e24b300c 	sub	r3, fp, #12
  48:	e51b0024 	ldr	r0, [fp, #-36]	; 0x24
  4c:	e1a01003 	mov	r1, r3
  50:	ebfffffe 	bl	0 <urlTreeLeftRotate>
  54:	e51b2024 	ldr	r2, [fp, #-36]	; 0x24
  58:	e51b3018 	ldr	r3, [fp, #-24]
  5c:	e282101c 	add	r1, r2, #28
  60:	e2832014 	add	r2, r3, #20
  64:	e3a03008 	mov	r3, #8
  68:	e1a00001 	mov	r0, r1
  6c:	e1a01002 	mov	r1, r2
  70:	e1a02003 	mov	r2, r3
  74:	ebfffffe 	bl	0 <memcpy>
  78:	e51b3018 	ldr	r3, [fp, #-24]
  7c:	e5d32014 	ldrb	r2, [r3, #20]
  80:	e5d31015 	ldrb	r1, [r3, #21]
  84:	e1a01401 	lsl	r1, r1, #8
  88:	e1812002 	orr	r2, r1, r2
  8c:	e5d31016 	ldrb	r1, [r3, #22]
  90:	e1a01801 	lsl	r1, r1, #16
  94:	e1812002 	orr	r2, r1, r2
  98:	e5d33017 	ldrb	r3, [r3, #23]
  9c:	e1a03c03 	lsl	r3, r3, #24
  a0:	e1833002 	orr	r3, r3, r2
  a4:	e3730001 	cmn	r3, #1
  a8:	0a00000b 	beq	dc <urlTreeLeftRotate+0xdc>
  ac:	e51b3018 	ldr	r3, [fp, #-24]
  b0:	e2833014 	add	r3, r3, #20
  b4:	e1a00003 	mov	r0, r3
  b8:	ebfffffe 	bl	0 <urlTreeLeftRotate>
  bc:	e1a03000 	mov	r3, r0
  c0:	e2831024 	add	r1, r3, #36	; 0x24
  c4:	e24b200c 	sub	r2, fp, #12
  c8:	e3a03008 	mov	r3, #8
  cc:	e1a00001 	mov	r0, r1
  d0:	e1a01002 	mov	r1, r2
  d4:	e1a02003 	mov	r2, r3
  d8:	ebfffffe 	bl	0 <memcpy>
  dc:	e51b2018 	ldr	r2, [fp, #-24]
  e0:	e51b3024 	ldr	r3, [fp, #-36]	; 0x24
  e4:	e2821024 	add	r1, r2, #36	; 0x24
  e8:	e2832024 	add	r2, r3, #36	; 0x24
  ec:	e3a03008 	mov	r3, #8
  f0:	e1a00001 	mov	r0, r1
  f4:	e1a01002 	mov	r1, r2
  f8:	e1a02003 	mov	r2, r3
  fc:	ebfffffe 	bl	0 <memcpy>
 100:	e51b3024 	ldr	r3, [fp, #-36]	; 0x24
 104:	e5d32024 	ldrb	r2, [r3, #36]	; 0x24
 108:	e5d31025 	ldrb	r1, [r3, #37]	; 0x25
 10c:	e1a01401 	lsl	r1, r1, #8
 110:	e1812002 	orr	r2, r1, r2
 114:	e5d31026 	ldrb	r1, [r3, #38]	; 0x26
 118:	e1a01801 	lsl	r1, r1, #16
 11c:	e1812002 	orr	r2, r1, r2
 120:	e5d33027 	ldrb	r3, [r3, #39]	; 0x27
 124:	e1a03c03 	lsl	r3, r3, #24
 128:	e1833002 	orr	r3, r3, r2
 12c:	e3730001 	cmn	r3, #1
 130:	1a000008 	bne	158 <urlTreeLeftRotate+0x158>
 134:	e51b3020 	ldr	r3, [fp, #-32]
 138:	e2831010 	add	r1, r3, #16
 13c:	e24b2014 	sub	r2, fp, #20
 140:	e3a03008 	mov	r3, #8
 144:	e1a00001 	mov	r0, r1
 148:	e1a01002 	mov	r1, r2
 14c:	e1a02003 	mov	r2, r3
 150:	ebfffffe 	bl	0 <memcpy>
 154:	ea000024 	b	1ec <urlTreeLeftRotate+0x1ec>
 158:	e51b3024 	ldr	r3, [fp, #-36]	; 0x24
 15c:	e2833024 	add	r3, r3, #36	; 0x24
 160:	e1a00003 	mov	r0, r3
 164:	ebfffffe 	bl	0 <urlTreeLeftRotate>
 168:	e1a03000 	mov	r3, r0
 16c:	e2833014 	add	r3, r3, #20
 170:	e1a00003 	mov	r0, r3
 174:	ebfffffe 	bl	0 <urlTreeLeftRotate>
 178:	e1a02000 	mov	r2, r0
 17c:	e51b3024 	ldr	r3, [fp, #-36]	; 0x24
 180:	e1520003 	cmp	r2, r3
 184:	1a00000c 	bne	1bc <urlTreeLeftRotate+0x1bc>
 188:	e51b3024 	ldr	r3, [fp, #-36]	; 0x24
 18c:	e2833024 	add	r3, r3, #36	; 0x24
 190:	e1a00003 	mov	r0, r3
 194:	ebfffffe 	bl	0 <urlTreeLeftRotate>
 198:	e1a03000 	mov	r3, r0
 19c:	e2831014 	add	r1, r3, #20
 1a0:	e24b2014 	sub	r2, fp, #20
 1a4:	e3a03008 	mov	r3, #8
 1a8:	e1a00001 	mov	r0, r1
 1ac:	e1a01002 	mov	r1, r2
 1b0:	e1a02003 	mov	r2, r3
 1b4:	ebfffffe 	bl	0 <memcpy>
 1b8:	ea00000b 	b	1ec <urlTreeLeftRotate+0x1ec>
 1bc:	e51b3024 	ldr	r3, [fp, #-36]	; 0x24
 1c0:	e2833024 	add	r3, r3, #36	; 0x24
 1c4:	e1a00003 	mov	r0, r3
 1c8:	ebfffffe 	bl	0 <urlTreeLeftRotate>
 1cc:	e1a03000 	mov	r3, r0
 1d0:	e283101c 	add	r1, r3, #28
 1d4:	e24b2014 	sub	r2, fp, #20
 1d8:	e3a03008 	mov	r3, #8
 1dc:	e1a00001 	mov	r0, r1
 1e0:	e1a01002 	mov	r1, r2
 1e4:	e1a02003 	mov	r2, r3
 1e8:	ebfffffe 	bl	0 <memcpy>
 1ec:	e51b3018 	ldr	r3, [fp, #-24]
 1f0:	e2831014 	add	r1, r3, #20
 1f4:	e24b200c 	sub	r2, fp, #12
 1f8:	e3a03008 	mov	r3, #8
 1fc:	e1a00001 	mov	r0, r1
 200:	e1a01002 	mov	r1, r2
 204:	e1a02003 	mov	r2, r3
 208:	ebfffffe 	bl	0 <memcpy>
 20c:	e51b3024 	ldr	r3, [fp, #-36]	; 0x24
 210:	e2831024 	add	r1, r3, #36	; 0x24
 214:	e24b2014 	sub	r2, fp, #20
 218:	e3a03008 	mov	r3, #8
 21c:	e1a00001 	mov	r0, r1
 220:	e1a01002 	mov	r1, r2
 224:	e1a02003 	mov	r2, r3
 228:	ebfffffe 	bl	0 <memcpy>
 22c:	e24bd004 	sub	sp, fp, #4
 230:	e8bd8800 	pop	{fp, pc}

Disassembly of section .text.urlTreeRightRotate:

00000000 <urlTreeRightRotate>:
   0:	e92d4800 	push	{fp, lr}
   4:	e28db004 	add	fp, sp, #4
   8:	e24dd020 	sub	sp, sp, #32
   c:	e50b0020 	str	r0, [fp, #-32]
  10:	e50b1024 	str	r1, [fp, #-36]	; 0x24
  14:	e51b3024 	ldr	r3, [fp, #-36]	; 0x24
  18:	e24b1014 	sub	r1, fp, #20
  1c:	e2832014 	add	r2, r3, #20
  20:	e3a03008 	mov	r3, #8
  24:	e1a00001 	mov	r0, r1
  28:	e1a01002 	mov	r1, r2
  2c:	e1a02003 	mov	r2, r3
  30:	ebfffffe 	bl	0 <memcpy>
  34:	e24b3014 	sub	r3, fp, #20
  38:	e1a00003 	mov	r0, r3
  3c:	ebfffffe 	bl	0 <urlTreeRightRotate>
  40:	e50b0018 	str	r0, [fp, #-24]
  44:	e24b300c 	sub	r3, fp, #12
  48:	e51b0024 	ldr	r0, [fp, #-36]	; 0x24
  4c:	e1a01003 	mov	r1, r3
  50:	ebfffffe 	bl	0 <urlTreeRightRotate>
  54:	e51b2024 	ldr	r2, [fp, #-36]	; 0x24
  58:	e51b3018 	ldr	r3, [fp, #-24]
  5c:	e2821014 	add	r1, r2, #20
  60:	e283201c 	add	r2, r3, #28
  64:	e3a03008 	mov	r3, #8
  68:	e1a00001 	mov	r0, r1
  6c:	e1a01002 	mov	r1, r2
  70:	e1a02003 	mov	r2, r3
  74:	ebfffffe 	bl	0 <memcpy>
  78:	e51b3018 	ldr	r3, [fp, #-24]
  7c:	e5d3201c 	ldrb	r2, [r3, #28]
  80:	e5d3101d 	ldrb	r1, [r3, #29]
  84:	e1a01401 	lsl	r1, r1, #8
  88:	e1812002 	orr	r2, r1, r2
  8c:	e5d3101e 	ldrb	r1, [r3, #30]
  90:	e1a01801 	lsl	r1, r1, #16
  94:	e1812002 	orr	r2, r1, r2
  98:	e5d3301f 	ldrb	r3, [r3, #31]
  9c:	e1a03c03 	lsl	r3, r3, #24
  a0:	e1833002 	orr	r3, r3, r2
  a4:	e3730001 	cmn	r3, #1
  a8:	0a00000b 	beq	dc <urlTreeRightRotate+0xdc>
  ac:	e51b3018 	ldr	r3, [fp, #-24]
  b0:	e283301c 	add	r3, r3, #28
  b4:	e1a00003 	mov	r0, r3
  b8:	ebfffffe 	bl	0 <urlTreeRightRotate>
  bc:	e1a03000 	mov	r3, r0
  c0:	e2831024 	add	r1, r3, #36	; 0x24
  c4:	e24b200c 	sub	r2, fp, #12
  c8:	e3a03008 	mov	r3, #8
  cc:	e1a00001 	mov	r0, r1
  d0:	e1a01002 	mov	r1, r2
  d4:	e1a02003 	mov	r2, r3
  d8:	ebfffffe 	bl	0 <memcpy>
  dc:	e51b2018 	ldr	r2, [fp, #-24]
  e0:	e51b3024 	ldr	r3, [fp, #-36]	; 0x24
  e4:	e2821024 	add	r1, r2, #36	; 0x24
  e8:	e2832024 	add	r2, r3, #36	; 0x24
  ec:	e3a03008 	mov	r3, #8
  f0:	e1a00001 	mov	r0, r1
  f4:	e1a01002 	mov	r1, r2
  f8:	e1a02003 	mov	r2, r3
  fc:	ebfffffe 	bl	0 <memcpy>
 100:	e51b3024 	ldr	r3, [fp, #-36]	; 0x24
 104:	e5d32024 	ldrb	r2, [r3, #36]	; 0x24
 108:	e5d31025 	ldrb	r1, [r3, #37]	; 0x25
 10c:	e1a01401 	lsl	r1, r1, #8
 110:	e1812002 	orr	r2, r1, r2
 114:	e5d31026 	ldrb	r1, [r3, #38]	; 0x26
 118:	e1a01801 	lsl	r1, r1, #16
 11c:	e1812002 	orr	r2, r1, r2
 120:	e5d33027 	ldrb	r3, [r3, #39]	; 0x27
 124:	e1a03c03 	lsl	r3, r3, #24
 128:	e1833002 	orr	r3, r3, r2
 12c:	e3730001 	cmn	r3, #1
 130:	1a000008 	bne	158 <urlTreeRightRotate+0x158>
 134:	e51b3020 	ldr	r3, [fp, #-32]
 138:	e2831010 	add	r1, r3, #16
 13c:	e24b2014 	sub	r2, fp, #20
 140:	e3a03008 	mov	r3, #8
 144:	e1a00001 	mov	r0, r1
 148:	e1a01002 	mov	r1, r2
 14c:	e1a02003 	mov	r2, r3
 150:	ebfffffe 	bl	0 <memcpy>
 154:	ea000024 	b	1ec <urlTreeRightRotate+0x1ec>
 158:	e51b3024 	ldr	r3, [fp, #-36]	; 0x24
 15c:	e2833024 	add	r3, r3, #36	; 0x24
 160:	e1a00003 	mov	r0, r3
 164:	ebfffffe 	bl	0 <urlTreeRightRotate>
 168:	e1a03000 	mov	r3, r0
 16c:	e2833014 	add	r3, r3, #20
 170:	e1a00003 	mov	r0, r3
 174:	ebfffffe 	bl	0 <urlTreeRightRotate>
 178:	e1a02000 	mov	r2, r0
 17c:	e51b3024 	ldr	r3, [fp, #-36]	; 0x24
 180:	e1520003 	cmp	r2, r3
 184:	1a00000c 	bne	1bc <urlTreeRightRotate+0x1bc>
 188:	e51b3024 	ldr	r3, [fp, #-36]	; 0x24
 18c:	e2833024 	add	r3, r3, #36	; 0x24
 190:	e1a00003 	mov	r0, r3
 194:	ebfffffe 	bl	0 <urlTreeRightRotate>
 198:	e1a03000 	mov	r3, r0
 19c:	e2831014 	add	r1, r3, #20
 1a0:	e24b2014 	sub	r2, fp, #20
 1a4:	e3a03008 	mov	r3, #8
 1a8:	e1a00001 	mov	r0, r1
 1ac:	e1a01002 	mov	r1, r2
 1b0:	e1a02003 	mov	r2, r3
 1b4:	ebfffffe 	bl	0 <memcpy>
 1b8:	ea00000b 	b	1ec <urlTreeRightRotate+0x1ec>
 1bc:	e51b3024 	ldr	r3, [fp, #-36]	; 0x24
 1c0:	e2833024 	add	r3, r3, #36	; 0x24
 1c4:	e1a00003 	mov	r0, r3
 1c8:	ebfffffe 	bl	0 <urlTreeRightRotate>
 1cc:	e1a03000 	mov	r3, r0
 1d0:	e283101c 	add	r1, r3, #28
 1d4:	e24b2014 	sub	r2, fp, #20
 1d8:	e3a03008 	mov	r3, #8
 1dc:	e1a00001 	mov	r0, r1
 1e0:	e1a01002 	mov	r1, r2
 1e4:	e1a02003 	mov	r2, r3
 1e8:	ebfffffe 	bl	0 <memcpy>
 1ec:	e51b3018 	ldr	r3, [fp, #-24]
 1f0:	e2831014 	add	r1, r3, #20
 1f4:	e24b200c 	sub	r2, fp, #12
 1f8:	e3a03008 	mov	r3, #8
 1fc:	e1a00001 	mov	r0, r1
 200:	e1a01002 	mov	r1, r2
 204:	e1a02003 	mov	r2, r3
 208:	ebfffffe 	bl	0 <memcpy>
 20c:	e51b3024 	ldr	r3, [fp, #-36]	; 0x24
 210:	e2831024 	add	r1, r3, #36	; 0x24
 214:	e24b2014 	sub	r2, fp, #20
 218:	e3a03008 	mov	r3, #8
 21c:	e1a00001 	mov	r0, r1
 220:	e1a01002 	mov	r1, r2
 224:	e1a02003 	mov	r2, r3
 228:	ebfffffe 	bl	0 <memcpy>
 22c:	e24bd004 	sub	sp, fp, #4
 230:	e8bd8800 	pop	{fp, pc}

Disassembly of section .text.findUrlPoolByIndex:

00000000 <findUrlPoolByIndex>:
   0:	e52db004 	push	{fp}		; (str fp, [sp, #-4]!)
   4:	e28db000 	add	fp, sp, #0
   8:	e24dd014 	sub	sp, sp, #20
   c:	e50b0010 	str	r0, [fp, #-16]
  10:	e59f3114 	ldr	r3, [pc, #276]	; 12c <findUrlPoolByIndex+0x12c>
  14:	e08f3003 	add	r3, pc, r3
  18:	e59f2110 	ldr	r2, [pc, #272]	; 130 <findUrlPoolByIndex+0x130>
  1c:	e7933002 	ldr	r3, [r3, r2]
  20:	e5933000 	ldr	r3, [r3]
  24:	e50b300c 	str	r3, [fp, #-12]
  28:	e3a03000 	mov	r3, #0
  2c:	e50b3008 	str	r3, [fp, #-8]
  30:	e51b300c 	ldr	r3, [fp, #-12]
  34:	e3530000 	cmp	r3, #0
  38:	0a000030 	beq	100 <findUrlPoolByIndex+0x100>
  3c:	ea000016 	b	9c <findUrlPoolByIndex+0x9c>
  40:	e51b300c 	ldr	r3, [fp, #-12]
  44:	e30f2ff8 	movw	r2, #65528	; 0xfff8
  48:	e340200f 	movt	r2, #15
  4c:	e7d31002 	ldrb	r1, [r3, r2]
  50:	e30f2ff9 	movw	r2, #65529	; 0xfff9
  54:	e340200f 	movt	r2, #15
  58:	e7d32002 	ldrb	r2, [r3, r2]
  5c:	e1a02402 	lsl	r2, r2, #8
  60:	e1821001 	orr	r1, r2, r1
  64:	e30f2ffa 	movw	r2, #65530	; 0xfffa
  68:	e340200f 	movt	r2, #15
  6c:	e7d32002 	ldrb	r2, [r3, r2]
  70:	e1a02802 	lsl	r2, r2, #16
  74:	e1821001 	orr	r1, r2, r1
  78:	e30f2ffb 	movw	r2, #65531	; 0xfffb
  7c:	e340200f 	movt	r2, #15
  80:	e7d33002 	ldrb	r3, [r3, r2]
  84:	e1a03c03 	lsl	r3, r3, #24
  88:	e1833001 	orr	r3, r3, r1
  8c:	e50b300c 	str	r3, [fp, #-12]
  90:	e51b3008 	ldr	r3, [fp, #-8]
  94:	e2833001 	add	r3, r3, #1
  98:	e50b3008 	str	r3, [fp, #-8]
  9c:	e51b2008 	ldr	r2, [fp, #-8]
  a0:	e51b3010 	ldr	r3, [fp, #-16]
  a4:	e1520003 	cmp	r2, r3
  a8:	2a000014 	bcs	100 <findUrlPoolByIndex+0x100>
  ac:	e51b300c 	ldr	r3, [fp, #-12]
  b0:	e30f2ff8 	movw	r2, #65528	; 0xfff8
  b4:	e340200f 	movt	r2, #15
  b8:	e7d31002 	ldrb	r1, [r3, r2]
  bc:	e30f2ff9 	movw	r2, #65529	; 0xfff9
  c0:	e340200f 	movt	r2, #15
  c4:	e7d32002 	ldrb	r2, [r3, r2]
  c8:	e1a02402 	lsl	r2, r2, #8
  cc:	e1821001 	orr	r1, r2, r1
  d0:	e30f2ffa 	movw	r2, #65530	; 0xfffa
  d4:	e340200f 	movt	r2, #15
  d8:	e7d32002 	ldrb	r2, [r3, r2]
  dc:	e1a02802 	lsl	r2, r2, #16
  e0:	e1821001 	orr	r1, r2, r1
  e4:	e30f2ffb 	movw	r2, #65531	; 0xfffb
  e8:	e340200f 	movt	r2, #15
  ec:	e7d33002 	ldrb	r3, [r3, r2]
  f0:	e1a03c03 	lsl	r3, r3, #24
  f4:	e1833001 	orr	r3, r3, r1
  f8:	e3530000 	cmp	r3, #0
  fc:	1affffcf 	bne	40 <findUrlPoolByIndex+0x40>
 100:	e51b2008 	ldr	r2, [fp, #-8]
 104:	e51b3010 	ldr	r3, [fp, #-16]
 108:	e1520003 	cmp	r2, r3
 10c:	3a000001 	bcc	118 <findUrlPoolByIndex+0x118>
 110:	e51b300c 	ldr	r3, [fp, #-12]
 114:	ea000000 	b	11c <findUrlPoolByIndex+0x11c>
 118:	e3a03000 	mov	r3, #0
 11c:	e1a00003 	mov	r0, r3
 120:	e28bd000 	add	sp, fp, #0
 124:	e8bd0800 	pop	{fp}
 128:	e12fff1e 	bx	lr
 12c:	00000110 	.word	0x00000110
 130:	00000000 	.word	0x00000000

Disassembly of section .text.gotoNextNode:

00000000 <gotoNextNode>:
   0:	e92d4800 	push	{fp, lr}
   4:	e28db004 	add	fp, sp, #4
   8:	e24dd010 	sub	sp, sp, #16
   c:	e50b0010 	str	r0, [fp, #-16]
  10:	e51b3010 	ldr	r3, [fp, #-16]
  14:	e5d3200c 	ldrb	r2, [r3, #12]
  18:	e5d3100d 	ldrb	r1, [r3, #13]
  1c:	e1a01401 	lsl	r1, r1, #8
  20:	e1812002 	orr	r2, r1, r2
  24:	e5d3100e 	ldrb	r1, [r3, #14]
  28:	e1a01801 	lsl	r1, r1, #16
  2c:	e1812002 	orr	r2, r1, r2
  30:	e5d3300f 	ldrb	r3, [r3, #15]
  34:	e1a03c03 	lsl	r3, r3, #24
  38:	e1833002 	orr	r3, r3, r2
  3c:	e1a00003 	mov	r0, r3
  40:	ebfffffe 	bl	0 <gotoNextNode>
  44:	e50b0008 	str	r0, [fp, #-8]
  48:	e51b3008 	ldr	r3, [fp, #-8]
  4c:	e3530000 	cmp	r3, #0
  50:	0a00000d 	beq	8c <gotoNextNode+0x8c>
  54:	e51b2008 	ldr	r2, [fp, #-8]
  58:	e51b3010 	ldr	r3, [fp, #-16]
  5c:	e5d31010 	ldrb	r1, [r3, #16]
  60:	e5d30011 	ldrb	r0, [r3, #17]
  64:	e1a00400 	lsl	r0, r0, #8
  68:	e1801001 	orr	r1, r0, r1
  6c:	e5d30012 	ldrb	r0, [r3, #18]
  70:	e1a00800 	lsl	r0, r0, #16
  74:	e1801001 	orr	r1, r0, r1
  78:	e5d33013 	ldrb	r3, [r3, #19]
  7c:	e1a03c03 	lsl	r3, r3, #24
  80:	e1833001 	orr	r3, r3, r1
  84:	e0823003 	add	r3, r2, r3
  88:	ea000000 	b	90 <gotoNextNode+0x90>
  8c:	e3a03000 	mov	r3, #0
  90:	e1a00003 	mov	r0, r3
  94:	e24bd004 	sub	sp, fp, #4
  98:	e8bd8800 	pop	{fp, pc}

Disassembly of section .text.urlPoolIndexToName:

00000000 <urlPoolIndexToName>:
   0:	e92d4810 	push	{r4, fp, lr}
   4:	e28db008 	add	fp, sp, #8
   8:	e24dd00c 	sub	sp, sp, #12
   c:	e50b0010 	str	r0, [fp, #-16]
  10:	e59f4060 	ldr	r4, [pc, #96]	; 78 <urlPoolIndexToName+0x78>
  14:	e08f4004 	add	r4, pc, r4
  18:	e59f305c 	ldr	r3, [pc, #92]	; 7c <urlPoolIndexToName+0x7c>
  1c:	e7943003 	ldr	r3, [r4, r3]
  20:	e1a00003 	mov	r0, r3
  24:	e3a01014 	mov	r1, #20
  28:	e59f3050 	ldr	r3, [pc, #80]	; 80 <urlPoolIndexToName+0x80>
  2c:	e08f3003 	add	r3, pc, r3
  30:	e1a02003 	mov	r2, r3
  34:	e51b3010 	ldr	r3, [fp, #-16]
  38:	ebfffffe 	bl	0 <snprintf>
  3c:	e3a00004 	mov	r0, #4
  40:	e59f303c 	ldr	r3, [pc, #60]	; 84 <urlPoolIndexToName+0x84>
  44:	e08f3003 	add	r3, pc, r3
  48:	e1a01003 	mov	r1, r3
  4c:	e59f3034 	ldr	r3, [pc, #52]	; 88 <urlPoolIndexToName+0x88>
  50:	e08f3003 	add	r3, pc, r3
  54:	e1a02003 	mov	r2, r3
  58:	e59f301c 	ldr	r3, [pc, #28]	; 7c <urlPoolIndexToName+0x7c>
  5c:	e7943003 	ldr	r3, [r4, r3]
  60:	ebfffffe 	bl	0 <__android_log_print>
  64:	e59f3010 	ldr	r3, [pc, #16]	; 7c <urlPoolIndexToName+0x7c>
  68:	e7943003 	ldr	r3, [r4, r3]
  6c:	e1a00003 	mov	r0, r3
  70:	e24bd008 	sub	sp, fp, #8
  74:	e8bd8810 	pop	{r4, fp, pc}
  78:	0000005c 	.word	0x0000005c
  7c:	00000000 	.word	0x00000000
  80:	00000198 	.word	0x00000198
  84:	00000044 	.word	0x00000044
  88:	00000188 	.word	0x00000188

Disassembly of section .text.urlNodeAllocFromPool:

00000000 <urlNodeAllocFromPool>:
   0:	e92d4810 	push	{r4, fp, lr}
   4:	e28db008 	add	fp, sp, #8
   8:	e24dd02c 	sub	sp, sp, #44	; 0x2c
   c:	e50b0028 	str	r0, [fp, #-40]	; 0x28
  10:	e50b102c 	str	r1, [fp, #-44]	; 0x2c
  14:	e50b2030 	str	r2, [fp, #-48]	; 0x30
  18:	e59f4584 	ldr	r4, [pc, #1412]	; 5a4 <urlNodeAllocFromPool+0x5a4>
  1c:	e08f4004 	add	r4, pc, r4
  20:	e3a03000 	mov	r3, #0
  24:	e50b3024 	str	r3, [fp, #-36]	; 0x24
  28:	e59f3578 	ldr	r3, [pc, #1400]	; 5a8 <urlNodeAllocFromPool+0x5a8>
  2c:	e7943003 	ldr	r3, [r4, r3]
  30:	e5933000 	ldr	r3, [r3]
  34:	e50b3020 	str	r3, [fp, #-32]
  38:	e3a03000 	mov	r3, #0
  3c:	e50b301c 	str	r3, [fp, #-28]
  40:	e3a03000 	mov	r3, #0
  44:	e50b3018 	str	r3, [fp, #-24]
  48:	e51b302c 	ldr	r3, [fp, #-44]	; 0x2c
  4c:	e2833033 	add	r3, r3, #51	; 0x33
  50:	e3c33003 	bic	r3, r3, #3
  54:	e50b3014 	str	r3, [fp, #-20]
  58:	e51b3014 	ldr	r3, [fp, #-20]
  5c:	e3530a01 	cmp	r3, #4096	; 0x1000
  60:	8a000002 	bhi	70 <urlNodeAllocFromPool+0x70>
  64:	e51b3020 	ldr	r3, [fp, #-32]
  68:	e3530000 	cmp	r3, #0
  6c:	1a000001 	bne	78 <urlNodeAllocFromPool+0x78>
  70:	e3a03000 	mov	r3, #0
  74:	ea000147 	b	598 <urlNodeAllocFromPool+0x598>
  78:	e51b3020 	ldr	r3, [fp, #-32]
  7c:	e30f2ff4 	movw	r2, #65524	; 0xfff4
  80:	e340200f 	movt	r2, #15
  84:	e7d31002 	ldrb	r1, [r3, r2]
  88:	e30f2ff5 	movw	r2, #65525	; 0xfff5
  8c:	e340200f 	movt	r2, #15
  90:	e7d32002 	ldrb	r2, [r3, r2]
  94:	e1a02402 	lsl	r2, r2, #8
  98:	e1821001 	orr	r1, r2, r1
  9c:	e30f2ff6 	movw	r2, #65526	; 0xfff6
  a0:	e340200f 	movt	r2, #15
  a4:	e7d32002 	ldrb	r2, [r3, r2]
  a8:	e1a02802 	lsl	r2, r2, #16
  ac:	e1821001 	orr	r1, r2, r1
  b0:	e30f2ff7 	movw	r2, #65527	; 0xfff7
  b4:	e340200f 	movt	r2, #15
  b8:	e7d33002 	ldrb	r3, [r3, r2]
  bc:	e1a03c03 	lsl	r3, r3, #24
  c0:	e1833001 	orr	r3, r3, r1
  c4:	e1a02003 	mov	r2, r3
  c8:	e51b3014 	ldr	r3, [fp, #-20]
  cc:	e0822003 	add	r2, r2, r3
  d0:	e30f3ff4 	movw	r3, #65524	; 0xfff4
  d4:	e340300f 	movt	r3, #15
  d8:	e1520003 	cmp	r2, r3
  dc:	8a000049 	bhi	208 <urlNodeAllocFromPool+0x208>
  e0:	e51b3020 	ldr	r3, [fp, #-32]
  e4:	e30f2ff4 	movw	r2, #65524	; 0xfff4
  e8:	e340200f 	movt	r2, #15
  ec:	e7d31002 	ldrb	r1, [r3, r2]
  f0:	e30f2ff5 	movw	r2, #65525	; 0xfff5
  f4:	e340200f 	movt	r2, #15
  f8:	e7d32002 	ldrb	r2, [r3, r2]
  fc:	e1a02402 	lsl	r2, r2, #8
 100:	e1821001 	orr	r1, r2, r1
 104:	e30f2ff6 	movw	r2, #65526	; 0xfff6
 108:	e340200f 	movt	r2, #15
 10c:	e7d32002 	ldrb	r2, [r3, r2]
 110:	e1a02802 	lsl	r2, r2, #16
 114:	e1821001 	orr	r1, r2, r1
 118:	e30f2ff7 	movw	r2, #65527	; 0xfff7
 11c:	e340200f 	movt	r2, #15
 120:	e7d33002 	ldrb	r3, [r3, r2]
 124:	e1a03c03 	lsl	r3, r3, #24
 128:	e1833001 	orr	r3, r3, r1
 12c:	e50b3018 	str	r3, [fp, #-24]
 130:	e51b3020 	ldr	r3, [fp, #-32]
 134:	e30f2ff4 	movw	r2, #65524	; 0xfff4
 138:	e340200f 	movt	r2, #15
 13c:	e7d31002 	ldrb	r1, [r3, r2]
 140:	e30f2ff5 	movw	r2, #65525	; 0xfff5
 144:	e340200f 	movt	r2, #15
 148:	e7d32002 	ldrb	r2, [r3, r2]
 14c:	e1a02402 	lsl	r2, r2, #8
 150:	e1821001 	orr	r1, r2, r1
 154:	e30f2ff6 	movw	r2, #65526	; 0xfff6
 158:	e340200f 	movt	r2, #15
 15c:	e7d32002 	ldrb	r2, [r3, r2]
 160:	e1a02802 	lsl	r2, r2, #16
 164:	e1821001 	orr	r1, r2, r1
 168:	e30f2ff7 	movw	r2, #65527	; 0xfff7
 16c:	e340200f 	movt	r2, #15
 170:	e7d33002 	ldrb	r3, [r3, r2]
 174:	e1a03c03 	lsl	r3, r3, #24
 178:	e1833001 	orr	r3, r3, r1
 17c:	e1a02003 	mov	r2, r3
 180:	e51b3014 	ldr	r3, [fp, #-20]
 184:	e0822003 	add	r2, r2, r3
 188:	e51b3020 	ldr	r3, [fp, #-32]
 18c:	e6ef0072 	uxtb	r0, r2
 190:	e30f1ff4 	movw	r1, #65524	; 0xfff4
 194:	e340100f 	movt	r1, #15
 198:	e3a0c000 	mov	ip, #0
 19c:	e18c0000 	orr	r0, ip, r0
 1a0:	e7c30001 	strb	r0, [r3, r1]
 1a4:	e1a01422 	lsr	r1, r2, #8
 1a8:	e6ef0071 	uxtb	r0, r1
 1ac:	e30f1ff5 	movw	r1, #65525	; 0xfff5
 1b0:	e340100f 	movt	r1, #15
 1b4:	e3a0c000 	mov	ip, #0
 1b8:	e18c0000 	orr	r0, ip, r0
 1bc:	e7c30001 	strb	r0, [r3, r1]
 1c0:	e1a01822 	lsr	r1, r2, #16
 1c4:	e6ef0071 	uxtb	r0, r1
 1c8:	e30f1ff6 	movw	r1, #65526	; 0xfff6
 1cc:	e340100f 	movt	r1, #15
 1d0:	e3a0c000 	mov	ip, #0
 1d4:	e18c0000 	orr	r0, ip, r0
 1d8:	e7c30001 	strb	r0, [r3, r1]
 1dc:	e1a01c22 	lsr	r1, r2, #24
 1e0:	e30f2ff7 	movw	r2, #65527	; 0xfff7
 1e4:	e340200f 	movt	r2, #15
 1e8:	e3a00000 	mov	r0, #0
 1ec:	e1801001 	orr	r1, r0, r1
 1f0:	e7c31002 	strb	r1, [r3, r2]
 1f4:	e51b2020 	ldr	r2, [fp, #-32]
 1f8:	e51b3018 	ldr	r3, [fp, #-24]
 1fc:	e0823003 	add	r3, r2, r3
 200:	e50b3024 	str	r3, [fp, #-36]	; 0x24
 204:	ea0000b1 	b	4d0 <urlNodeAllocFromPool+0x4d0>
 208:	e51b301c 	ldr	r3, [fp, #-28]
 20c:	e2833001 	add	r3, r3, #1
 210:	e50b301c 	str	r3, [fp, #-28]
 214:	e51b3020 	ldr	r3, [fp, #-32]
 218:	e30f2ff8 	movw	r2, #65528	; 0xfff8
 21c:	e340200f 	movt	r2, #15
 220:	e7d31002 	ldrb	r1, [r3, r2]
 224:	e30f2ff9 	movw	r2, #65529	; 0xfff9
 228:	e340200f 	movt	r2, #15
 22c:	e7d32002 	ldrb	r2, [r3, r2]
 230:	e1a02402 	lsl	r2, r2, #8
 234:	e1821001 	orr	r1, r2, r1
 238:	e30f2ffa 	movw	r2, #65530	; 0xfffa
 23c:	e340200f 	movt	r2, #15
 240:	e7d32002 	ldrb	r2, [r3, r2]
 244:	e1a02802 	lsl	r2, r2, #16
 248:	e1821001 	orr	r1, r2, r1
 24c:	e30f2ffb 	movw	r2, #65531	; 0xfffb
 250:	e340200f 	movt	r2, #15
 254:	e7d33002 	ldrb	r3, [r3, r2]
 258:	e1a03c03 	lsl	r3, r3, #24
 25c:	e1833001 	orr	r3, r3, r1
 260:	e3530000 	cmp	r3, #0
 264:	0a000014 	beq	2bc <urlNodeAllocFromPool+0x2bc>
 268:	e51b3020 	ldr	r3, [fp, #-32]
 26c:	e30f2ff8 	movw	r2, #65528	; 0xfff8
 270:	e340200f 	movt	r2, #15
 274:	e7d31002 	ldrb	r1, [r3, r2]
 278:	e30f2ff9 	movw	r2, #65529	; 0xfff9
 27c:	e340200f 	movt	r2, #15
 280:	e7d32002 	ldrb	r2, [r3, r2]
 284:	e1a02402 	lsl	r2, r2, #8
 288:	e1821001 	orr	r1, r2, r1
 28c:	e30f2ffa 	movw	r2, #65530	; 0xfffa
 290:	e340200f 	movt	r2, #15
 294:	e7d32002 	ldrb	r2, [r3, r2]
 298:	e1a02802 	lsl	r2, r2, #16
 29c:	e1821001 	orr	r1, r2, r1
 2a0:	e30f2ffb 	movw	r2, #65531	; 0xfffb
 2a4:	e340200f 	movt	r2, #15
 2a8:	e7d33002 	ldrb	r3, [r3, r2]
 2ac:	e1a03c03 	lsl	r3, r3, #24
 2b0:	e1833001 	orr	r3, r3, r1
 2b4:	e50b3020 	str	r3, [fp, #-32]
 2b8:	eaffff6e 	b	78 <urlNodeAllocFromPool+0x78>
 2bc:	e59f32e8 	ldr	r3, [pc, #744]	; 5ac <urlNodeAllocFromPool+0x5ac>
 2c0:	e7943003 	ldr	r3, [r4, r3]
 2c4:	e5933000 	ldr	r3, [r3]
 2c8:	e5d32050 	ldrb	r2, [r3, #80]	; 0x50
 2cc:	e5d31051 	ldrb	r1, [r3, #81]	; 0x51
 2d0:	e1a01401 	lsl	r1, r1, #8
 2d4:	e1812002 	orr	r2, r1, r2
 2d8:	e5d31052 	ldrb	r1, [r3, #82]	; 0x52
 2dc:	e1a01801 	lsl	r1, r1, #16
 2e0:	e1812002 	orr	r2, r1, r2
 2e4:	e5d33053 	ldrb	r3, [r3, #83]	; 0x53
 2e8:	e1a03c03 	lsl	r3, r3, #24
 2ec:	e1833002 	orr	r3, r3, r2
 2f0:	e1a00003 	mov	r0, r3
 2f4:	ebfffffe 	bl	0 <urlNodeAllocFromPool>
 2f8:	e1a03000 	mov	r3, r0
 2fc:	e51b0028 	ldr	r0, [fp, #-40]	; 0x28
 300:	e1a01003 	mov	r1, r3
 304:	e30f2ffc 	movw	r2, #65532	; 0xfffc
 308:	e340200f 	movt	r2, #15
 30c:	ebfffffe 	bl	0 <urlNodeAllocFromPool>
 310:	e50b0010 	str	r0, [fp, #-16]
 314:	e51b3010 	ldr	r3, [fp, #-16]
 318:	e3530000 	cmp	r3, #0
 31c:	0a00006a 	beq	4cc <urlNodeAllocFromPool+0x4cc>
 320:	e3a00004 	mov	r0, #4
 324:	e59f3284 	ldr	r3, [pc, #644]	; 5b0 <urlNodeAllocFromPool+0x5b0>
 328:	e08f3003 	add	r3, pc, r3
 32c:	e1a01003 	mov	r1, r3
 330:	e59f327c 	ldr	r3, [pc, #636]	; 5b4 <urlNodeAllocFromPool+0x5b4>
 334:	e08f3003 	add	r3, pc, r3
 338:	e1a02003 	mov	r2, r3
 33c:	ebfffffe 	bl	0 <__android_log_print>
 340:	e59f3264 	ldr	r3, [pc, #612]	; 5ac <urlNodeAllocFromPool+0x5ac>
 344:	e7943003 	ldr	r3, [r4, r3]
 348:	e5933000 	ldr	r3, [r3]
 34c:	e5d32050 	ldrb	r2, [r3, #80]	; 0x50
 350:	e5d31051 	ldrb	r1, [r3, #81]	; 0x51
 354:	e1a01401 	lsl	r1, r1, #8
 358:	e1812002 	orr	r2, r1, r2
 35c:	e5d31052 	ldrb	r1, [r3, #82]	; 0x52
 360:	e1a01801 	lsl	r1, r1, #16
 364:	e1812002 	orr	r2, r1, r2
 368:	e5d31053 	ldrb	r1, [r3, #83]	; 0x53
 36c:	e1a01c01 	lsl	r1, r1, #24
 370:	e1812002 	orr	r2, r1, r2
 374:	e2822001 	add	r2, r2, #1
 378:	e6ef1072 	uxtb	r1, r2
 37c:	e3a00000 	mov	r0, #0
 380:	e1801001 	orr	r1, r0, r1
 384:	e5c31050 	strb	r1, [r3, #80]	; 0x50
 388:	e1a01422 	lsr	r1, r2, #8
 38c:	e6ef1071 	uxtb	r1, r1
 390:	e3a00000 	mov	r0, #0
 394:	e1801001 	orr	r1, r0, r1
 398:	e5c31051 	strb	r1, [r3, #81]	; 0x51
 39c:	e1a01822 	lsr	r1, r2, #16
 3a0:	e6ef1071 	uxtb	r1, r1
 3a4:	e3a00000 	mov	r0, #0
 3a8:	e1801001 	orr	r1, r0, r1
 3ac:	e5c31052 	strb	r1, [r3, #82]	; 0x52
 3b0:	e1a02c22 	lsr	r2, r2, #24
 3b4:	e3a01000 	mov	r1, #0
 3b8:	e1812002 	orr	r2, r1, r2
 3bc:	e5c32053 	strb	r2, [r3, #83]	; 0x53
 3c0:	e51b3010 	ldr	r3, [fp, #-16]
 3c4:	e2832004 	add	r2, r3, #4
 3c8:	e51b3020 	ldr	r3, [fp, #-32]
 3cc:	e6ef0072 	uxtb	r0, r2
 3d0:	e30f1ff8 	movw	r1, #65528	; 0xfff8
 3d4:	e340100f 	movt	r1, #15
 3d8:	e3a0c000 	mov	ip, #0
 3dc:	e18c0000 	orr	r0, ip, r0
 3e0:	e7c30001 	strb	r0, [r3, r1]
 3e4:	e1a01422 	lsr	r1, r2, #8
 3e8:	e6ef0071 	uxtb	r0, r1
 3ec:	e30f1ff9 	movw	r1, #65529	; 0xfff9
 3f0:	e340100f 	movt	r1, #15
 3f4:	e3a0c000 	mov	ip, #0
 3f8:	e18c0000 	orr	r0, ip, r0
 3fc:	e7c30001 	strb	r0, [r3, r1]
 400:	e1a01822 	lsr	r1, r2, #16
 404:	e6ef0071 	uxtb	r0, r1
 408:	e30f1ffa 	movw	r1, #65530	; 0xfffa
 40c:	e340100f 	movt	r1, #15
 410:	e3a0c000 	mov	ip, #0
 414:	e18c0000 	orr	r0, ip, r0
 418:	e7c30001 	strb	r0, [r3, r1]
 41c:	e1a01c22 	lsr	r1, r2, #24
 420:	e30f2ffb 	movw	r2, #65531	; 0xfffb
 424:	e340200f 	movt	r2, #15
 428:	e3a00000 	mov	r0, #0
 42c:	e1801001 	orr	r1, r0, r1
 430:	e7c31002 	strb	r1, [r3, r2]
 434:	e51b3010 	ldr	r3, [fp, #-16]
 438:	e2833004 	add	r3, r3, #4
 43c:	e50b3020 	str	r3, [fp, #-32]
 440:	e51b3020 	ldr	r3, [fp, #-32]
 444:	e30f2ff4 	movw	r2, #65524	; 0xfff4
 448:	e340200f 	movt	r2, #15
 44c:	e3a01000 	mov	r1, #0
 450:	e7c31002 	strb	r1, [r3, r2]
 454:	e30f2ff5 	movw	r2, #65525	; 0xfff5
 458:	e340200f 	movt	r2, #15
 45c:	e3a01000 	mov	r1, #0
 460:	e7c31002 	strb	r1, [r3, r2]
 464:	e30f2ff6 	movw	r2, #65526	; 0xfff6
 468:	e340200f 	movt	r2, #15
 46c:	e3a01000 	mov	r1, #0
 470:	e7c31002 	strb	r1, [r3, r2]
 474:	e30f2ff7 	movw	r2, #65527	; 0xfff7
 478:	e340200f 	movt	r2, #15
 47c:	e3a01000 	mov	r1, #0
 480:	e7c31002 	strb	r1, [r3, r2]
 484:	e51b3020 	ldr	r3, [fp, #-32]
 488:	e30f2ff8 	movw	r2, #65528	; 0xfff8
 48c:	e340200f 	movt	r2, #15
 490:	e3a01000 	mov	r1, #0
 494:	e7c31002 	strb	r1, [r3, r2]
 498:	e30f2ff9 	movw	r2, #65529	; 0xfff9
 49c:	e340200f 	movt	r2, #15
 4a0:	e3a01000 	mov	r1, #0
 4a4:	e7c31002 	strb	r1, [r3, r2]
 4a8:	e30f2ffa 	movw	r2, #65530	; 0xfffa
 4ac:	e340200f 	movt	r2, #15
 4b0:	e3a01000 	mov	r1, #0
 4b4:	e7c31002 	strb	r1, [r3, r2]
 4b8:	e30f2ffb 	movw	r2, #65531	; 0xfffb
 4bc:	e340200f 	movt	r2, #15
 4c0:	e3a01000 	mov	r1, #0
 4c4:	e7c31002 	strb	r1, [r3, r2]
 4c8:	eafffeea 	b	78 <urlNodeAllocFromPool+0x78>
 4cc:	e1a00000 	nop			; (mov r0, r0)
 4d0:	e51b3024 	ldr	r3, [fp, #-36]	; 0x24
 4d4:	e3530000 	cmp	r3, #0
 4d8:	0a00002d 	beq	594 <urlNodeAllocFromPool+0x594>
 4dc:	e51b3030 	ldr	r3, [fp, #-48]	; 0x30
 4e0:	e3530000 	cmp	r3, #0
 4e4:	0a000021 	beq	570 <urlNodeAllocFromPool+0x570>
 4e8:	e51b3030 	ldr	r3, [fp, #-48]	; 0x30
 4ec:	e55b201c 	ldrb	r2, [fp, #-28]
 4f0:	e3a01000 	mov	r1, #0
 4f4:	e1812002 	orr	r2, r1, r2
 4f8:	e5c32000 	strb	r2, [r3]
 4fc:	e55b201b 	ldrb	r2, [fp, #-27]
 500:	e3a01000 	mov	r1, #0
 504:	e1812002 	orr	r2, r1, r2
 508:	e5c32001 	strb	r2, [r3, #1]
 50c:	e55b201a 	ldrb	r2, [fp, #-26]
 510:	e3a01000 	mov	r1, #0
 514:	e1812002 	orr	r2, r1, r2
 518:	e5c32002 	strb	r2, [r3, #2]
 51c:	e55b2019 	ldrb	r2, [fp, #-25]
 520:	e3a01000 	mov	r1, #0
 524:	e1812002 	orr	r2, r1, r2
 528:	e5c32003 	strb	r2, [r3, #3]
 52c:	e51b3030 	ldr	r3, [fp, #-48]	; 0x30
 530:	e55b2018 	ldrb	r2, [fp, #-24]
 534:	e3a01000 	mov	r1, #0
 538:	e1812002 	orr	r2, r1, r2
 53c:	e5c32004 	strb	r2, [r3, #4]
 540:	e55b2017 	ldrb	r2, [fp, #-23]
 544:	e3a01000 	mov	r1, #0
 548:	e1812002 	orr	r2, r1, r2
 54c:	e5c32005 	strb	r2, [r3, #5]
 550:	e55b2016 	ldrb	r2, [fp, #-22]
 554:	e3a01000 	mov	r1, #0
 558:	e1812002 	orr	r2, r1, r2
 55c:	e5c32006 	strb	r2, [r3, #6]
 560:	e55b2015 	ldrb	r2, [fp, #-21]
 564:	e3a01000 	mov	r1, #0
 568:	e1812002 	orr	r2, r1, r2
 56c:	e5c32007 	strb	r2, [r3, #7]
 570:	e51b3024 	ldr	r3, [fp, #-36]	; 0x24
 574:	e3e02000 	mvn	r2, #0
 578:	e5c3200c 	strb	r2, [r3, #12]
 57c:	e3e02000 	mvn	r2, #0
 580:	e5c3200d 	strb	r2, [r3, #13]
 584:	e3e02000 	mvn	r2, #0
 588:	e5c3200e 	strb	r2, [r3, #14]
 58c:	e3e02000 	mvn	r2, #0
 590:	e5c3200f 	strb	r2, [r3, #15]
 594:	e51b3024 	ldr	r3, [fp, #-36]	; 0x24
 598:	e1a00003 	mov	r0, r3
 59c:	e24bd008 	sub	sp, fp, #8
 5a0:	e8bd8810 	pop	{r4, fp, pc}
 5a4:	00000580 	.word	0x00000580
	...
 5b0:	0000028c 	.word	0x0000028c
 5b4:	000003e4 	.word	0x000003e4

Disassembly of section .text.spiderReportProcess:

00000000 <spiderReportProcess>:
   0:	e92d4870 	.word	0xe92d4870
   4:	e28db010 	add	fp, sp, #16
   8:	e24dd01c 	sub	sp, sp, #28
   c:	e50b0018 	str	r0, [fp, #-24]
  10:	e59f41d4 	ldr	r4, [pc, #468]	; 1ec <spiderReportProcess+0x1ec>
  14:	e08f4004 	add	r4, pc, r4
  18:	e59f31d0 	ldr	r3, [pc, #464]	; 1f0 <spiderReportProcess+0x1f0>
  1c:	e7943003 	ldr	r3, [r4, r3]
  20:	e5933000 	ldr	r3, [r3]
  24:	e3530000 	cmp	r3, #0
  28:	1a000022 	bne	b8 <spiderReportProcess+0xb8>
  2c:	e51b3018 	ldr	r3, [fp, #-24]
  30:	e5933000 	ldr	r3, [r3]
  34:	e5932018 	ldr	r2, [r3, #24]
  38:	e51b0018 	ldr	r0, [fp, #-24]
  3c:	e59f31b0 	ldr	r3, [pc, #432]	; 1f4 <spiderReportProcess+0x1f4>
  40:	e08f3003 	add	r3, pc, r3
  44:	e1a01003 	mov	r1, r3
  48:	e12fff32 	blx	r2
  4c:	e1a02000 	mov	r2, r0
  50:	e59f31a0 	ldr	r3, [pc, #416]	; 1f8 <spiderReportProcess+0x1f8>
  54:	e7943003 	ldr	r3, [r4, r3]
  58:	e5832000 	str	r2, [r3]
  5c:	e59f3194 	ldr	r3, [pc, #404]	; 1f8 <spiderReportProcess+0x1f8>
  60:	e7943003 	ldr	r3, [r4, r3]
  64:	e5933000 	ldr	r3, [r3]
  68:	e3530000 	cmp	r3, #0
  6c:	0a000011 	beq	b8 <spiderReportProcess+0xb8>
  70:	e51b3018 	ldr	r3, [fp, #-24]
  74:	e5933000 	ldr	r3, [r3]
  78:	e593c084 	ldr	ip, [r3, #132]	; 0x84
  7c:	e59f3174 	ldr	r3, [pc, #372]	; 1f8 <spiderReportProcess+0x1f8>
  80:	e7943003 	ldr	r3, [r4, r3]
  84:	e5933000 	ldr	r3, [r3]
  88:	e51b0018 	ldr	r0, [fp, #-24]
  8c:	e1a01003 	mov	r1, r3
  90:	e59f3164 	ldr	r3, [pc, #356]	; 1fc <spiderReportProcess+0x1fc>
  94:	e08f3003 	add	r3, pc, r3
  98:	e1a02003 	mov	r2, r3
  9c:	e59f315c 	ldr	r3, [pc, #348]	; 200 <spiderReportProcess+0x200>
  a0:	e08f3003 	add	r3, pc, r3
  a4:	e12fff3c 	blx	ip
  a8:	e1a02000 	mov	r2, r0
  ac:	e59f313c 	ldr	r3, [pc, #316]	; 1f0 <spiderReportProcess+0x1f0>
  b0:	e7943003 	ldr	r3, [r4, r3]
  b4:	e5832000 	str	r2, [r3]
  b8:	e59f3130 	ldr	r3, [pc, #304]	; 1f0 <spiderReportProcess+0x1f0>
  bc:	e7943003 	ldr	r3, [r4, r3]
  c0:	e5933000 	ldr	r3, [r3]
  c4:	e3530000 	cmp	r3, #0
  c8:	0a000045 	beq	1e4 <spiderReportProcess+0x1e4>
  cc:	e51b3018 	ldr	r3, [fp, #-24]
  d0:	e5933000 	ldr	r3, [r3]
  d4:	e593c0f4 	ldr	ip, [r3, #244]	; 0xf4
  d8:	e59f3124 	ldr	r3, [pc, #292]	; 204 <spiderReportProcess+0x204>
  dc:	e7943003 	ldr	r3, [r4, r3]
  e0:	e5931000 	ldr	r1, [r3]
  e4:	e59f3104 	ldr	r3, [pc, #260]	; 1f0 <spiderReportProcess+0x1f0>
  e8:	e7943003 	ldr	r3, [r4, r3]
  ec:	e5932000 	ldr	r2, [r3]
  f0:	e59f3110 	ldr	r3, [pc, #272]	; 208 <spiderReportProcess+0x208>
  f4:	e7943003 	ldr	r3, [r4, r3]
  f8:	e5933000 	ldr	r3, [r3]
  fc:	e5d3004c 	ldrb	r0, [r3, #76]	; 0x4c
 100:	e5d3e04d 	ldrb	lr, [r3, #77]	; 0x4d
 104:	e1a0e40e 	lsl	lr, lr, #8
 108:	e18e0000 	orr	r0, lr, r0
 10c:	e5d3e04e 	ldrb	lr, [r3, #78]	; 0x4e
 110:	e1a0e80e 	lsl	lr, lr, #16
 114:	e18e0000 	orr	r0, lr, r0
 118:	e5d3304f 	ldrb	r3, [r3, #79]	; 0x4f
 11c:	e1a03c03 	lsl	r3, r3, #24
 120:	e1833000 	orr	r3, r3, r0
 124:	e1a0e003 	mov	lr, r3
 128:	e59f30d8 	ldr	r3, [pc, #216]	; 208 <spiderReportProcess+0x208>
 12c:	e7943003 	ldr	r3, [r4, r3]
 130:	e5933000 	ldr	r3, [r3]
 134:	e5d30048 	ldrb	r0, [r3, #72]	; 0x48
 138:	e5d35049 	ldrb	r5, [r3, #73]	; 0x49
 13c:	e1a05405 	lsl	r5, r5, #8
 140:	e1850000 	orr	r0, r5, r0
 144:	e5d3504a 	ldrb	r5, [r3, #74]	; 0x4a
 148:	e1a05805 	lsl	r5, r5, #16
 14c:	e1850000 	orr	r0, r5, r0
 150:	e5d3304b 	ldrb	r3, [r3, #75]	; 0x4b
 154:	e1a03c03 	lsl	r3, r3, #24
 158:	e1833000 	orr	r3, r3, r0
 15c:	e1a05003 	mov	r5, r3
 160:	e59f30a0 	ldr	r3, [pc, #160]	; 208 <spiderReportProcess+0x208>
 164:	e7943003 	ldr	r3, [r4, r3]
 168:	e5933000 	ldr	r3, [r3]
 16c:	e5d30024 	ldrb	r0, [r3, #36]	; 0x24
 170:	e5d36025 	ldrb	r6, [r3, #37]	; 0x25
 174:	e1a06406 	lsl	r6, r6, #8
 178:	e1860000 	orr	r0, r6, r0
 17c:	e5d36026 	ldrb	r6, [r3, #38]	; 0x26
 180:	e1a06806 	lsl	r6, r6, #16
 184:	e1860000 	orr	r0, r6, r0
 188:	e5d33027 	ldrb	r3, [r3, #39]	; 0x27
 18c:	e1a03c03 	lsl	r3, r3, #24
 190:	e1833000 	orr	r3, r3, r0
 194:	e1a00003 	mov	r0, r3
 198:	e59f3068 	ldr	r3, [pc, #104]	; 208 <spiderReportProcess+0x208>
 19c:	e7943003 	ldr	r3, [r4, r3]
 1a0:	e5933000 	ldr	r3, [r3]
 1a4:	e5d34020 	ldrb	r4, [r3, #32]
 1a8:	e5d36021 	ldrb	r6, [r3, #33]	; 0x21
 1ac:	e1a06406 	lsl	r6, r6, #8
 1b0:	e1864004 	orr	r4, r6, r4
 1b4:	e5d36022 	ldrb	r6, [r3, #34]	; 0x22
 1b8:	e1a06806 	lsl	r6, r6, #16
 1bc:	e1864004 	orr	r4, r6, r4
 1c0:	e5d33023 	ldrb	r3, [r3, #35]	; 0x23
 1c4:	e1a03c03 	lsl	r3, r3, #24
 1c8:	e1833004 	orr	r3, r3, r4
 1cc:	e58d5000 	str	r5, [sp]
 1d0:	e58d0004 	str	r0, [sp, #4]
 1d4:	e58d3008 	str	r3, [sp, #8]
 1d8:	e51b0018 	ldr	r0, [fp, #-24]
 1dc:	e1a0300e 	mov	r3, lr
 1e0:	e12fff3c 	blx	ip
 1e4:	e24bd010 	sub	sp, fp, #16
 1e8:	e8bd8870 	pop	{r4, r5, r6, fp, pc}
 1ec:	000001d0 	.word	0x000001d0
 1f0:	00000000 	.word	0x00000000
 1f4:	00000268 	.word	0x00000268
 1f8:	00000000 	.word	0x00000000
 1fc:	000002e8 	.word	0x000002e8
 200:	000002ec 	.word	0x000002ec
	...

Disassembly of section .text.spiderParaInit:

00000000 <spiderParaInit>:
   0:	e92d4810 	push	{r4, fp, lr}
   4:	e28db008 	add	fp, sp, #8
   8:	e24dd014 	sub	sp, sp, #20
   c:	e50b0018 	str	r0, [fp, #-24]
  10:	e59f42dc 	ldr	r4, [pc, #732]	; 2f4 <spiderParaInit+0x2f4>
  14:	e08f4004 	add	r4, pc, r4
  18:	e51b0018 	ldr	r0, [fp, #-24]
  1c:	e59f32d4 	ldr	r3, [pc, #724]	; 2f8 <spiderParaInit+0x2f8>
  20:	e08f3003 	add	r3, pc, r3
  24:	e1a01003 	mov	r1, r3
  28:	e3a02054 	mov	r2, #84	; 0x54
  2c:	ebfffffe 	bl	0 <spiderParaInit>
  30:	e50b0010 	str	r0, [fp, #-16]
  34:	e51b3010 	ldr	r3, [fp, #-16]
  38:	e3530000 	cmp	r3, #0
  3c:	0a0000a8 	beq	2e4 <spiderParaInit+0x2e4>
  40:	e51b3010 	ldr	r3, [fp, #-16]
  44:	e2832004 	add	r2, r3, #4
  48:	e59f32ac 	ldr	r3, [pc, #684]	; 2fc <spiderParaInit+0x2fc>
  4c:	e7943003 	ldr	r3, [r4, r3]
  50:	e5832000 	str	r2, [r3]
  54:	e51b3010 	ldr	r3, [fp, #-16]
  58:	e5d32000 	ldrb	r2, [r3]
  5c:	e5d31001 	ldrb	r1, [r3, #1]
  60:	e1a01401 	lsl	r1, r1, #8
  64:	e1812002 	orr	r2, r1, r2
  68:	e5d31002 	ldrb	r1, [r3, #2]
  6c:	e1a01801 	lsl	r1, r1, #16
  70:	e1812002 	orr	r2, r1, r2
  74:	e5d33003 	ldrb	r3, [r3, #3]
  78:	e1a03c03 	lsl	r3, r3, #24
  7c:	e1833002 	orr	r3, r3, r2
  80:	e1a02003 	mov	r2, r3
  84:	e3053678 	movw	r3, #22136	; 0x5678
  88:	e3413234 	movt	r3, #4660	; 0x1234
  8c:	e1520003 	cmp	r2, r3
  90:	0a00008f 	beq	2d4 <spiderParaInit+0x2d4>
  94:	e59f3260 	ldr	r3, [pc, #608]	; 2fc <spiderParaInit+0x2fc>
  98:	e7943003 	ldr	r3, [r4, r3]
  9c:	e5933000 	ldr	r3, [r3]
  a0:	e3e02000 	mvn	r2, #0
  a4:	e5c32000 	strb	r2, [r3]
  a8:	e3e02000 	mvn	r2, #0
  ac:	e5c32001 	strb	r2, [r3, #1]
  b0:	e3e02000 	mvn	r2, #0
  b4:	e5c32002 	strb	r2, [r3, #2]
  b8:	e3e02000 	mvn	r2, #0
  bc:	e5c32003 	strb	r2, [r3, #3]
  c0:	e59f3234 	ldr	r3, [pc, #564]	; 2fc <spiderParaInit+0x2fc>
  c4:	e7943003 	ldr	r3, [r4, r3]
  c8:	e5933000 	ldr	r3, [r3]
  cc:	e3e02000 	mvn	r2, #0
  d0:	e5c32008 	strb	r2, [r3, #8]
  d4:	e3e02000 	mvn	r2, #0
  d8:	e5c32009 	strb	r2, [r3, #9]
  dc:	e3e02000 	mvn	r2, #0
  e0:	e5c3200a 	strb	r2, [r3, #10]
  e4:	e3e02000 	mvn	r2, #0
  e8:	e5c3200b 	strb	r2, [r3, #11]
  ec:	e59f3208 	ldr	r3, [pc, #520]	; 2fc <spiderParaInit+0x2fc>
  f0:	e7943003 	ldr	r3, [r4, r3]
  f4:	e5933000 	ldr	r3, [r3]
  f8:	e3e02000 	mvn	r2, #0
  fc:	e5c32010 	strb	r2, [r3, #16]
 100:	e3e02000 	mvn	r2, #0
 104:	e5c32011 	strb	r2, [r3, #17]
 108:	e3e02000 	mvn	r2, #0
 10c:	e5c32012 	strb	r2, [r3, #18]
 110:	e3e02000 	mvn	r2, #0
 114:	e5c32013 	strb	r2, [r3, #19]
 118:	e59f31dc 	ldr	r3, [pc, #476]	; 2fc <spiderParaInit+0x2fc>
 11c:	e7943003 	ldr	r3, [r4, r3]
 120:	e5933000 	ldr	r3, [r3]
 124:	e3e02000 	mvn	r2, #0
 128:	e5c32018 	strb	r2, [r3, #24]
 12c:	e3e02000 	mvn	r2, #0
 130:	e5c32019 	strb	r2, [r3, #25]
 134:	e3e02000 	mvn	r2, #0
 138:	e5c3201a 	strb	r2, [r3, #26]
 13c:	e3e02000 	mvn	r2, #0
 140:	e5c3201b 	strb	r2, [r3, #27]
 144:	e59f31b0 	ldr	r3, [pc, #432]	; 2fc <spiderParaInit+0x2fc>
 148:	e7943003 	ldr	r3, [r4, r3]
 14c:	e5933000 	ldr	r3, [r3]
 150:	e3a02000 	mov	r2, #0
 154:	e5c32020 	strb	r2, [r3, #32]
 158:	e3a02000 	mov	r2, #0
 15c:	e5c32021 	strb	r2, [r3, #33]	; 0x21
 160:	e3a02000 	mov	r2, #0
 164:	e5c32022 	strb	r2, [r3, #34]	; 0x22
 168:	e3a02000 	mov	r2, #0
 16c:	e5c32023 	strb	r2, [r3, #35]	; 0x23
 170:	e59f3184 	ldr	r3, [pc, #388]	; 2fc <spiderParaInit+0x2fc>
 174:	e7943003 	ldr	r3, [r4, r3]
 178:	e5933000 	ldr	r3, [r3]
 17c:	e3a02000 	mov	r2, #0
 180:	e5c32024 	strb	r2, [r3, #36]	; 0x24
 184:	e3a02000 	mov	r2, #0
 188:	e5c32025 	strb	r2, [r3, #37]	; 0x25
 18c:	e3a02000 	mov	r2, #0
 190:	e5c32026 	strb	r2, [r3, #38]	; 0x26
 194:	e3a02000 	mov	r2, #0
 198:	e5c32027 	strb	r2, [r3, #39]	; 0x27
 19c:	e59f3158 	ldr	r3, [pc, #344]	; 2fc <spiderParaInit+0x2fc>
 1a0:	e7943003 	ldr	r3, [r4, r3]
 1a4:	e5933000 	ldr	r3, [r3]
 1a8:	e3e02000 	mvn	r2, #0
 1ac:	e5c32028 	strb	r2, [r3, #40]	; 0x28
 1b0:	e3e02000 	mvn	r2, #0
 1b4:	e5c32029 	strb	r2, [r3, #41]	; 0x29
 1b8:	e3e02000 	mvn	r2, #0
 1bc:	e5c3202a 	strb	r2, [r3, #42]	; 0x2a
 1c0:	e3e02000 	mvn	r2, #0
 1c4:	e5c3202b 	strb	r2, [r3, #43]	; 0x2b
 1c8:	e59f312c 	ldr	r3, [pc, #300]	; 2fc <spiderParaInit+0x2fc>
 1cc:	e7943003 	ldr	r3, [r4, r3]
 1d0:	e5933000 	ldr	r3, [r3]
 1d4:	e3e02000 	mvn	r2, #0
 1d8:	e5c32030 	strb	r2, [r3, #48]	; 0x30
 1dc:	e3e02000 	mvn	r2, #0
 1e0:	e5c32031 	strb	r2, [r3, #49]	; 0x31
 1e4:	e3e02000 	mvn	r2, #0
 1e8:	e5c32032 	strb	r2, [r3, #50]	; 0x32
 1ec:	e3e02000 	mvn	r2, #0
 1f0:	e5c32033 	strb	r2, [r3, #51]	; 0x33
 1f4:	e59f3100 	ldr	r3, [pc, #256]	; 2fc <spiderParaInit+0x2fc>
 1f8:	e7943003 	ldr	r3, [r4, r3]
 1fc:	e5933000 	ldr	r3, [r3]
 200:	e3e02000 	mvn	r2, #0
 204:	e5c32038 	strb	r2, [r3, #56]	; 0x38
 208:	e3e02000 	mvn	r2, #0
 20c:	e5c32039 	strb	r2, [r3, #57]	; 0x39
 210:	e3e02000 	mvn	r2, #0
 214:	e5c3203a 	strb	r2, [r3, #58]	; 0x3a
 218:	e3e02000 	mvn	r2, #0
 21c:	e5c3203b 	strb	r2, [r3, #59]	; 0x3b
 220:	e59f30d4 	ldr	r3, [pc, #212]	; 2fc <spiderParaInit+0x2fc>
 224:	e7943003 	ldr	r3, [r4, r3]
 228:	e5933000 	ldr	r3, [r3]
 22c:	e3e02000 	mvn	r2, #0
 230:	e5c32040 	strb	r2, [r3, #64]	; 0x40
 234:	e3e02000 	mvn	r2, #0
 238:	e5c32041 	strb	r2, [r3, #65]	; 0x41
 23c:	e3e02000 	mvn	r2, #0
 240:	e5c32042 	strb	r2, [r3, #66]	; 0x42
 244:	e3e02000 	mvn	r2, #0
 248:	e5c32043 	strb	r2, [r3, #67]	; 0x43
 24c:	e59f30a8 	ldr	r3, [pc, #168]	; 2fc <spiderParaInit+0x2fc>
 250:	e7943003 	ldr	r3, [r4, r3]
 254:	e5933000 	ldr	r3, [r3]
 258:	e3a02000 	mov	r2, #0
 25c:	e5c32048 	strb	r2, [r3, #72]	; 0x48
 260:	e3a02000 	mov	r2, #0
 264:	e5c32049 	strb	r2, [r3, #73]	; 0x49
 268:	e3a02000 	mov	r2, #0
 26c:	e5c3204a 	strb	r2, [r3, #74]	; 0x4a
 270:	e3a02000 	mov	r2, #0
 274:	e5c3204b 	strb	r2, [r3, #75]	; 0x4b
 278:	e59f307c 	ldr	r3, [pc, #124]	; 2fc <spiderParaInit+0x2fc>
 27c:	e7943003 	ldr	r3, [r4, r3]
 280:	e5933000 	ldr	r3, [r3]
 284:	e3a02000 	mov	r2, #0
 288:	e5c3204c 	strb	r2, [r3, #76]	; 0x4c
 28c:	e3a02000 	mov	r2, #0
 290:	e5c3204d 	strb	r2, [r3, #77]	; 0x4d
 294:	e3a02000 	mov	r2, #0
 298:	e5c3204e 	strb	r2, [r3, #78]	; 0x4e
 29c:	e3a02000 	mov	r2, #0
 2a0:	e5c3204f 	strb	r2, [r3, #79]	; 0x4f
 2a4:	e59f3050 	ldr	r3, [pc, #80]	; 2fc <spiderParaInit+0x2fc>
 2a8:	e7943003 	ldr	r3, [r4, r3]
 2ac:	e5933000 	ldr	r3, [r3]
 2b0:	e3a02000 	mov	r2, #0
 2b4:	e5c32050 	strb	r2, [r3, #80]	; 0x50
 2b8:	e3a02000 	mov	r2, #0
 2bc:	e5c32051 	strb	r2, [r3, #81]	; 0x51
 2c0:	e3a02000 	mov	r2, #0
 2c4:	e5c32052 	strb	r2, [r3, #82]	; 0x52
 2c8:	e3a02000 	mov	r2, #0
 2cc:	e5c32053 	strb	r2, [r3, #83]	; 0x53
 2d0:	ea000001 	b	2dc <spiderParaInit+0x2dc>
 2d4:	e51b0018 	ldr	r0, [fp, #-24]
 2d8:	ebfffffe 	bl	0 <spiderParaInit>
 2dc:	e3a03001 	mov	r3, #1
 2e0:	ea000000 	b	2e8 <spiderParaInit+0x2e8>
 2e4:	e3a03000 	mov	r3, #0
 2e8:	e1a00003 	mov	r0, r3
 2ec:	e24bd008 	sub	sp, fp, #8
 2f0:	e8bd8810 	pop	{r4, fp, pc}
 2f4:	000002d8 	.word	0x000002d8
 2f8:	0000046c 	.word	0x0000046c
 2fc:	00000000 	.word	0x00000000

Disassembly of section .text.urlPoolInit:

00000000 <urlPoolInit>:
   0:	e92d4810 	push	{r4, fp, lr}
   4:	e28db008 	add	fp, sp, #8
   8:	e24dd01c 	sub	sp, sp, #28
   c:	e50b0020 	str	r0, [fp, #-32]
  10:	e59f433c 	ldr	r4, [pc, #828]	; 354 <urlPoolInit+0x354>
  14:	e08f4004 	add	r4, pc, r4
  18:	e59f3338 	ldr	r3, [pc, #824]	; 358 <urlPoolInit+0x358>
  1c:	e7943003 	ldr	r3, [r4, r3]
  20:	e5933000 	ldr	r3, [r3]
  24:	e5d32050 	ldrb	r2, [r3, #80]	; 0x50
  28:	e5d31051 	ldrb	r1, [r3, #81]	; 0x51
  2c:	e1a01401 	lsl	r1, r1, #8
  30:	e1812002 	orr	r2, r1, r2
  34:	e5d31052 	ldrb	r1, [r3, #82]	; 0x52
  38:	e1a01801 	lsl	r1, r1, #16
  3c:	e1812002 	orr	r2, r1, r2
  40:	e5d33053 	ldrb	r3, [r3, #83]	; 0x53
  44:	e1a03c03 	lsl	r3, r3, #24
  48:	e1833002 	orr	r3, r3, r2
  4c:	e3530000 	cmp	r3, #0
  50:	1a000044 	bne	168 <urlPoolInit+0x168>
  54:	e3a00000 	mov	r0, #0
  58:	ebfffffe 	bl	0 <urlPoolInit>
  5c:	e1a03000 	mov	r3, r0
  60:	e51b0020 	ldr	r0, [fp, #-32]
  64:	e1a01003 	mov	r1, r3
  68:	e30f2ffc 	movw	r2, #65532	; 0xfffc
  6c:	e340200f 	movt	r2, #15
  70:	ebfffffe 	bl	0 <urlPoolInit>
  74:	e50b0014 	str	r0, [fp, #-20]
  78:	e51b3014 	ldr	r3, [fp, #-20]
  7c:	e3530000 	cmp	r3, #0
  80:	0a0000af 	beq	344 <urlPoolInit+0x344>
  84:	e51b3014 	ldr	r3, [fp, #-20]
  88:	e2832004 	add	r2, r3, #4
  8c:	e59f32c8 	ldr	r3, [pc, #712]	; 35c <urlPoolInit+0x35c>
  90:	e7943003 	ldr	r3, [r4, r3]
  94:	e5832000 	str	r2, [r3]
  98:	e59f32bc 	ldr	r3, [pc, #700]	; 35c <urlPoolInit+0x35c>
  9c:	e7943003 	ldr	r3, [r4, r3]
  a0:	e5933000 	ldr	r3, [r3]
  a4:	e30f2ff4 	movw	r2, #65524	; 0xfff4
  a8:	e340200f 	movt	r2, #15
  ac:	e3a01000 	mov	r1, #0
  b0:	e7c31002 	strb	r1, [r3, r2]
  b4:	e30f2ff5 	movw	r2, #65525	; 0xfff5
  b8:	e340200f 	movt	r2, #15
  bc:	e3a01000 	mov	r1, #0
  c0:	e7c31002 	strb	r1, [r3, r2]
  c4:	e30f2ff6 	movw	r2, #65526	; 0xfff6
  c8:	e340200f 	movt	r2, #15
  cc:	e3a01000 	mov	r1, #0
  d0:	e7c31002 	strb	r1, [r3, r2]
  d4:	e30f2ff7 	movw	r2, #65527	; 0xfff7
  d8:	e340200f 	movt	r2, #15
  dc:	e3a01000 	mov	r1, #0
  e0:	e7c31002 	strb	r1, [r3, r2]
  e4:	e59f3270 	ldr	r3, [pc, #624]	; 35c <urlPoolInit+0x35c>
  e8:	e7943003 	ldr	r3, [r4, r3]
  ec:	e5933000 	ldr	r3, [r3]
  f0:	e30f2ff8 	movw	r2, #65528	; 0xfff8
  f4:	e340200f 	movt	r2, #15
  f8:	e3a01000 	mov	r1, #0
  fc:	e7c31002 	strb	r1, [r3, r2]
 100:	e30f2ff9 	movw	r2, #65529	; 0xfff9
 104:	e340200f 	movt	r2, #15
 108:	e3a01000 	mov	r1, #0
 10c:	e7c31002 	strb	r1, [r3, r2]
 110:	e30f2ffa 	movw	r2, #65530	; 0xfffa
 114:	e340200f 	movt	r2, #15
 118:	e3a01000 	mov	r1, #0
 11c:	e7c31002 	strb	r1, [r3, r2]
 120:	e30f2ffb 	movw	r2, #65531	; 0xfffb
 124:	e340200f 	movt	r2, #15
 128:	e3a01000 	mov	r1, #0
 12c:	e7c31002 	strb	r1, [r3, r2]
 130:	e59f3220 	ldr	r3, [pc, #544]	; 358 <urlPoolInit+0x358>
 134:	e7943003 	ldr	r3, [r4, r3]
 138:	e5933000 	ldr	r3, [r3]
 13c:	e3a02000 	mov	r2, #0
 140:	e3822001 	orr	r2, r2, #1
 144:	e5c32050 	strb	r2, [r3, #80]	; 0x50
 148:	e3a02000 	mov	r2, #0
 14c:	e5c32051 	strb	r2, [r3, #81]	; 0x51
 150:	e3a02000 	mov	r2, #0
 154:	e5c32052 	strb	r2, [r3, #82]	; 0x52
 158:	e3a02000 	mov	r2, #0
 15c:	e5c32053 	strb	r2, [r3, #83]	; 0x53
 160:	e3a03001 	mov	r3, #1
 164:	ea000077 	b	348 <urlPoolInit+0x348>
 168:	e3a03000 	mov	r3, #0
 16c:	e50b301c 	str	r3, [fp, #-28]
 170:	ea00004b 	b	2a4 <urlPoolInit+0x2a4>
 174:	e51b001c 	ldr	r0, [fp, #-28]
 178:	ebfffffe 	bl	0 <urlPoolInit>
 17c:	e1a03000 	mov	r3, r0
 180:	e51b0020 	ldr	r0, [fp, #-32]
 184:	e1a01003 	mov	r1, r3
 188:	e30f2ffc 	movw	r2, #65532	; 0xfffc
 18c:	e340200f 	movt	r2, #15
 190:	ebfffffe 	bl	0 <urlPoolInit>
 194:	e50b0010 	str	r0, [fp, #-16]
 198:	e51b3010 	ldr	r3, [fp, #-16]
 19c:	e3530000 	cmp	r3, #0
 1a0:	0a000051 	beq	2ec <urlPoolInit+0x2ec>
 1a4:	e51b3010 	ldr	r3, [fp, #-16]
 1a8:	e5d32000 	ldrb	r2, [r3]
 1ac:	e5d31001 	ldrb	r1, [r3, #1]
 1b0:	e1a01401 	lsl	r1, r1, #8
 1b4:	e1812002 	orr	r2, r1, r2
 1b8:	e5d31002 	ldrb	r1, [r3, #2]
 1bc:	e1a01801 	lsl	r1, r1, #16
 1c0:	e1812002 	orr	r2, r1, r2
 1c4:	e5d33003 	ldrb	r3, [r3, #3]
 1c8:	e1a03c03 	lsl	r3, r3, #24
 1cc:	e1833002 	orr	r3, r3, r2
 1d0:	e1a02003 	mov	r2, r3
 1d4:	e3053678 	movw	r3, #22136	; 0x5678
 1d8:	e3413234 	movt	r3, #4660	; 0x1234
 1dc:	e1520003 	cmp	r2, r3
 1e0:	1a000043 	bne	2f4 <urlPoolInit+0x2f4>
 1e4:	e51b301c 	ldr	r3, [fp, #-28]
 1e8:	e3530000 	cmp	r3, #0
 1ec:	1a000009 	bne	218 <urlPoolInit+0x218>
 1f0:	e51b3010 	ldr	r3, [fp, #-16]
 1f4:	e2832004 	add	r2, r3, #4
 1f8:	e59f315c 	ldr	r3, [pc, #348]	; 35c <urlPoolInit+0x35c>
 1fc:	e7943003 	ldr	r3, [r4, r3]
 200:	e5832000 	str	r2, [r3]
 204:	e59f3150 	ldr	r3, [pc, #336]	; 35c <urlPoolInit+0x35c>
 208:	e7943003 	ldr	r3, [r4, r3]
 20c:	e5933000 	ldr	r3, [r3]
 210:	e50b3018 	str	r3, [fp, #-24]
 214:	ea00001f 	b	298 <urlPoolInit+0x298>
 218:	e51b3010 	ldr	r3, [fp, #-16]
 21c:	e2832004 	add	r2, r3, #4
 220:	e51b3018 	ldr	r3, [fp, #-24]
 224:	e6ef0072 	uxtb	r0, r2
 228:	e30f1ff8 	movw	r1, #65528	; 0xfff8
 22c:	e340100f 	movt	r1, #15
 230:	e3a0c000 	mov	ip, #0
 234:	e18c0000 	orr	r0, ip, r0
 238:	e7c30001 	strb	r0, [r3, r1]
 23c:	e1a01422 	lsr	r1, r2, #8
 240:	e6ef0071 	uxtb	r0, r1
 244:	e30f1ff9 	movw	r1, #65529	; 0xfff9
 248:	e340100f 	movt	r1, #15
 24c:	e3a0c000 	mov	ip, #0
 250:	e18c0000 	orr	r0, ip, r0
 254:	e7c30001 	strb	r0, [r3, r1]
 258:	e1a01822 	lsr	r1, r2, #16
 25c:	e6ef0071 	uxtb	r0, r1
 260:	e30f1ffa 	movw	r1, #65530	; 0xfffa
 264:	e340100f 	movt	r1, #15
 268:	e3a0c000 	mov	ip, #0
 26c:	e18c0000 	orr	r0, ip, r0
 270:	e7c30001 	strb	r0, [r3, r1]
 274:	e1a01c22 	lsr	r1, r2, #24
 278:	e30f2ffb 	movw	r2, #65531	; 0xfffb
 27c:	e340200f 	movt	r2, #15
 280:	e3a00000 	mov	r0, #0
 284:	e1801001 	orr	r1, r0, r1
 288:	e7c31002 	strb	r1, [r3, r2]
 28c:	e51b3010 	ldr	r3, [fp, #-16]
 290:	e2833004 	add	r3, r3, #4
 294:	e50b3018 	str	r3, [fp, #-24]
 298:	e51b301c 	ldr	r3, [fp, #-28]
 29c:	e2833001 	add	r3, r3, #1
 2a0:	e50b301c 	str	r3, [fp, #-28]
 2a4:	e59f30ac 	ldr	r3, [pc, #172]	; 358 <urlPoolInit+0x358>
 2a8:	e7943003 	ldr	r3, [r4, r3]
 2ac:	e5933000 	ldr	r3, [r3]
 2b0:	e5d32050 	ldrb	r2, [r3, #80]	; 0x50
 2b4:	e5d31051 	ldrb	r1, [r3, #81]	; 0x51
 2b8:	e1a01401 	lsl	r1, r1, #8
 2bc:	e1812002 	orr	r2, r1, r2
 2c0:	e5d31052 	ldrb	r1, [r3, #82]	; 0x52
 2c4:	e1a01801 	lsl	r1, r1, #16
 2c8:	e1812002 	orr	r2, r1, r2
 2cc:	e5d33053 	ldrb	r3, [r3, #83]	; 0x53
 2d0:	e1a03c03 	lsl	r3, r3, #24
 2d4:	e1833002 	orr	r3, r3, r2
 2d8:	e1a02003 	mov	r2, r3
 2dc:	e51b301c 	ldr	r3, [fp, #-28]
 2e0:	e1520003 	cmp	r2, r3
 2e4:	8affffa2 	bhi	174 <urlPoolInit+0x174>
 2e8:	ea000002 	b	2f8 <urlPoolInit+0x2f8>
 2ec:	e1a00000 	nop			; (mov r0, r0)
 2f0:	ea000000 	b	2f8 <urlPoolInit+0x2f8>
 2f4:	e1a00000 	nop			; (mov r0, r0)
 2f8:	e59f3058 	ldr	r3, [pc, #88]	; 358 <urlPoolInit+0x358>
 2fc:	e7943003 	ldr	r3, [r4, r3]
 300:	e5933000 	ldr	r3, [r3]
 304:	e5d32050 	ldrb	r2, [r3, #80]	; 0x50
 308:	e5d31051 	ldrb	r1, [r3, #81]	; 0x51
 30c:	e1a01401 	lsl	r1, r1, #8
 310:	e1812002 	orr	r2, r1, r2
 314:	e5d31052 	ldrb	r1, [r3, #82]	; 0x52
 318:	e1a01801 	lsl	r1, r1, #16
 31c:	e1812002 	orr	r2, r1, r2
 320:	e5d33053 	ldrb	r3, [r3, #83]	; 0x53
 324:	e1a03c03 	lsl	r3, r3, #24
 328:	e1833002 	orr	r3, r3, r2
 32c:	e1a02003 	mov	r2, r3
 330:	e51b301c 	ldr	r3, [fp, #-28]
 334:	e1520003 	cmp	r2, r3
 338:	1a000001 	bne	344 <urlPoolInit+0x344>
 33c:	e3a03001 	mov	r3, #1
 340:	ea000000 	b	348 <urlPoolInit+0x348>
 344:	e3a03000 	mov	r3, #0
 348:	e1a00003 	mov	r0, r3
 34c:	e24bd008 	sub	sp, fp, #8
 350:	e8bd8810 	pop	{r4, fp, pc}
 354:	00000338 	.word	0x00000338
	...

Disassembly of section .text.Java_com_UltimateImgSpider_SpiderService_jniSpiderInit:

00000000 <Java_com_UltimateImgSpider_SpiderService_jniSpiderInit>:
   0:	e92d4800 	.word	0xe92d4800
   4:	e28db004 	add	fp, sp, #4
   8:	e24dd008 	sub	sp, sp, #8
   c:	e50b0008 	str	r0, [fp, #-8]
  10:	e50b100c 	str	r1, [fp, #-12]
  14:	e59f3058 	ldr	r3, [pc, #88]	; 74 <Java_com_UltimateImgSpider_SpiderService_jniSpiderInit+0x74>
  18:	e08f3003 	add	r3, pc, r3
  1c:	e59f2054 	ldr	r2, [pc, #84]	; 78 <Java_com_UltimateImgSpider_SpiderService_jniSpiderInit+0x78>
  20:	e7933002 	ldr	r3, [r3, r2]
  24:	e51b200c 	ldr	r2, [fp, #-12]
  28:	e5832000 	str	r2, [r3]
  2c:	e51b0008 	ldr	r0, [fp, #-8]
  30:	ebfffffe 	bl	0 <Java_com_UltimateImgSpider_SpiderService_jniSpiderInit>
  34:	e1a03000 	mov	r3, r0
  38:	e3530000 	cmp	r3, #0
  3c:	1a000001 	bne	48 <Java_com_UltimateImgSpider_SpiderService_jniSpiderInit+0x48>
  40:	e3a03000 	mov	r3, #0
  44:	ea000007 	b	68 <Java_com_UltimateImgSpider_SpiderService_jniSpiderInit+0x68>
  48:	e51b0008 	ldr	r0, [fp, #-8]
  4c:	ebfffffe 	bl	0 <Java_com_UltimateImgSpider_SpiderService_jniSpiderInit>
  50:	e1a03000 	mov	r3, r0
  54:	e3530000 	cmp	r3, #0
  58:	1a000001 	bne	64 <Java_com_UltimateImgSpider_SpiderService_jniSpiderInit+0x64>
  5c:	e3a03000 	mov	r3, #0
  60:	ea000000 	b	68 <Java_com_UltimateImgSpider_SpiderService_jniSpiderInit+0x68>
  64:	e3a03001 	mov	r3, #1
  68:	e1a00003 	mov	r0, r3
  6c:	e24bd004 	sub	sp, fp, #4
  70:	e8bd8800 	pop	{fp, pc}
  74:	00000054 	.word	0x00000054
  78:	00000000 	.word	0x00000000

Disassembly of section .text.rbUrlTreeFixup:

00000000 <rbUrlTreeFixup>:
   0:	e92d4800 	push	{fp, lr}
   4:	e28db004 	add	fp, sp, #4
   8:	e24dd018 	sub	sp, sp, #24
   c:	e50b0018 	str	r0, [fp, #-24]
  10:	e50b101c 	str	r1, [fp, #-28]
  14:	e51b301c 	ldr	r3, [fp, #-28]
  18:	e2833024 	add	r3, r3, #36	; 0x24
  1c:	e1a00003 	mov	r0, r3
  20:	ebfffffe 	bl	0 <rbUrlTreeFixup>
  24:	e50b0014 	str	r0, [fp, #-20]
  28:	ea000083 	b	23c <rbUrlTreeFixup+0x23c>
  2c:	e51b3014 	ldr	r3, [fp, #-20]
  30:	e2833024 	add	r3, r3, #36	; 0x24
  34:	e1a00003 	mov	r0, r3
  38:	ebfffffe 	bl	0 <rbUrlTreeFixup>
  3c:	e50b0008 	str	r0, [fp, #-8]
  40:	e51b3014 	ldr	r3, [fp, #-20]
  44:	e5d3202c 	ldrb	r2, [r3, #44]	; 0x2c
  48:	e5d3102d 	ldrb	r1, [r3, #45]	; 0x2d
  4c:	e1a01401 	lsl	r1, r1, #8
  50:	e1812002 	orr	r2, r1, r2
  54:	e5d3102e 	ldrb	r1, [r3, #46]	; 0x2e
  58:	e1a01801 	lsl	r1, r1, #16
  5c:	e1812002 	orr	r2, r1, r2
  60:	e5d3302f 	ldrb	r3, [r3, #47]	; 0x2f
  64:	e1a03c03 	lsl	r3, r3, #24
  68:	e1833002 	orr	r3, r3, r2
  6c:	e3530000 	cmp	r3, #0
  70:	1a000075 	bne	24c <rbUrlTreeFixup+0x24c>
  74:	e51b3008 	ldr	r3, [fp, #-8]
  78:	e2833014 	add	r3, r3, #20
  7c:	e1a00003 	mov	r0, r3
  80:	ebfffffe 	bl	0 <rbUrlTreeFixup>
  84:	e1a02000 	mov	r2, r0
  88:	e51b3014 	ldr	r3, [fp, #-20]
  8c:	e1520003 	cmp	r2, r3
  90:	1a00000a 	bne	c0 <rbUrlTreeFixup+0xc0>
  94:	e51b3008 	ldr	r3, [fp, #-8]
  98:	e283301c 	add	r3, r3, #28
  9c:	e1a00003 	mov	r0, r3
  a0:	ebfffffe 	bl	0 <rbUrlTreeFixup>
  a4:	e50b0010 	str	r0, [fp, #-16]
  a8:	e51b3014 	ldr	r3, [fp, #-20]
  ac:	e2833014 	add	r3, r3, #20
  b0:	e1a00003 	mov	r0, r3
  b4:	ebfffffe 	bl	0 <rbUrlTreeFixup>
  b8:	e50b000c 	str	r0, [fp, #-12]
  bc:	ea000009 	b	e8 <rbUrlTreeFixup+0xe8>
  c0:	e51b3008 	ldr	r3, [fp, #-8]
  c4:	e2833014 	add	r3, r3, #20
  c8:	e1a00003 	mov	r0, r3
  cc:	ebfffffe 	bl	0 <rbUrlTreeFixup>
  d0:	e50b0010 	str	r0, [fp, #-16]
  d4:	e51b3014 	ldr	r3, [fp, #-20]
  d8:	e283301c 	add	r3, r3, #28
  dc:	e1a00003 	mov	r0, r3
  e0:	ebfffffe 	bl	0 <rbUrlTreeFixup>
  e4:	e50b000c 	str	r0, [fp, #-12]
  e8:	e51b3010 	ldr	r3, [fp, #-16]
  ec:	e3530000 	cmp	r3, #0
  f0:	0a00002c 	beq	1a8 <rbUrlTreeFixup+0x1a8>
  f4:	e51b3010 	ldr	r3, [fp, #-16]
  f8:	e5d3202c 	ldrb	r2, [r3, #44]	; 0x2c
  fc:	e5d3102d 	ldrb	r1, [r3, #45]	; 0x2d
 100:	e1a01401 	lsl	r1, r1, #8
 104:	e1812002 	orr	r2, r1, r2
 108:	e5d3102e 	ldrb	r1, [r3, #46]	; 0x2e
 10c:	e1a01801 	lsl	r1, r1, #16
 110:	e1812002 	orr	r2, r1, r2
 114:	e5d3302f 	ldrb	r3, [r3, #47]	; 0x2f
 118:	e1a03c03 	lsl	r3, r3, #24
 11c:	e1833002 	orr	r3, r3, r2
 120:	e3530000 	cmp	r3, #0
 124:	1a00001f 	bne	1a8 <rbUrlTreeFixup+0x1a8>
 128:	e51b3014 	ldr	r3, [fp, #-20]
 12c:	e3a02000 	mov	r2, #0
 130:	e3822001 	orr	r2, r2, #1
 134:	e5c3202c 	strb	r2, [r3, #44]	; 0x2c
 138:	e3a02000 	mov	r2, #0
 13c:	e5c3202d 	strb	r2, [r3, #45]	; 0x2d
 140:	e3a02000 	mov	r2, #0
 144:	e5c3202e 	strb	r2, [r3, #46]	; 0x2e
 148:	e3a02000 	mov	r2, #0
 14c:	e5c3202f 	strb	r2, [r3, #47]	; 0x2f
 150:	e51b3010 	ldr	r3, [fp, #-16]
 154:	e3a02000 	mov	r2, #0
 158:	e3822001 	orr	r2, r2, #1
 15c:	e5c3202c 	strb	r2, [r3, #44]	; 0x2c
 160:	e3a02000 	mov	r2, #0
 164:	e5c3202d 	strb	r2, [r3, #45]	; 0x2d
 168:	e3a02000 	mov	r2, #0
 16c:	e5c3202e 	strb	r2, [r3, #46]	; 0x2e
 170:	e3a02000 	mov	r2, #0
 174:	e5c3202f 	strb	r2, [r3, #47]	; 0x2f
 178:	e51b3008 	ldr	r3, [fp, #-8]
 17c:	e3a02000 	mov	r2, #0
 180:	e5c3202c 	strb	r2, [r3, #44]	; 0x2c
 184:	e3a02000 	mov	r2, #0
 188:	e5c3202d 	strb	r2, [r3, #45]	; 0x2d
 18c:	e3a02000 	mov	r2, #0
 190:	e5c3202e 	strb	r2, [r3, #46]	; 0x2e
 194:	e3a02000 	mov	r2, #0
 198:	e5c3202f 	strb	r2, [r3, #47]	; 0x2f
 19c:	e51b3008 	ldr	r3, [fp, #-8]
 1a0:	e50b301c 	str	r3, [fp, #-28]
 1a4:	ea000009 	b	1d0 <rbUrlTreeFixup+0x1d0>
 1a8:	e51b201c 	ldr	r2, [fp, #-28]
 1ac:	e51b300c 	ldr	r3, [fp, #-12]
 1b0:	e1520003 	cmp	r2, r3
 1b4:	1a000004 	bne	1cc <rbUrlTreeFixup+0x1cc>
 1b8:	e51b3014 	ldr	r3, [fp, #-20]
 1bc:	e50b301c 	str	r3, [fp, #-28]
 1c0:	e51b0018 	ldr	r0, [fp, #-24]
 1c4:	e51b101c 	ldr	r1, [fp, #-28]
 1c8:	ebfffffe 	bl	0 <rbUrlTreeFixup>
 1cc:	e1a00000 	nop			; (mov r0, r0)
 1d0:	e51b3014 	ldr	r3, [fp, #-20]
 1d4:	e3a02000 	mov	r2, #0
 1d8:	e3822001 	orr	r2, r2, #1
 1dc:	e5c3202c 	strb	r2, [r3, #44]	; 0x2c
 1e0:	e3a02000 	mov	r2, #0
 1e4:	e5c3202d 	strb	r2, [r3, #45]	; 0x2d
 1e8:	e3a02000 	mov	r2, #0
 1ec:	e5c3202e 	strb	r2, [r3, #46]	; 0x2e
 1f0:	e3a02000 	mov	r2, #0
 1f4:	e5c3202f 	strb	r2, [r3, #47]	; 0x2f
 1f8:	e51b3008 	ldr	r3, [fp, #-8]
 1fc:	e3a02000 	mov	r2, #0
 200:	e5c3202c 	strb	r2, [r3, #44]	; 0x2c
 204:	e3a02000 	mov	r2, #0
 208:	e5c3202d 	strb	r2, [r3, #45]	; 0x2d
 20c:	e3a02000 	mov	r2, #0
 210:	e5c3202e 	strb	r2, [r3, #46]	; 0x2e
 214:	e3a02000 	mov	r2, #0
 218:	e5c3202f 	strb	r2, [r3, #47]	; 0x2f
 21c:	e51b0018 	ldr	r0, [fp, #-24]
 220:	e51b1008 	ldr	r1, [fp, #-8]
 224:	ebfffffe 	bl	0 <rbUrlTreeFixup>
 228:	e51b301c 	ldr	r3, [fp, #-28]
 22c:	e2833024 	add	r3, r3, #36	; 0x24
 230:	e1a00003 	mov	r0, r3
 234:	ebfffffe 	bl	0 <rbUrlTreeFixup>
 238:	e50b0014 	str	r0, [fp, #-20]
 23c:	e51b3014 	ldr	r3, [fp, #-20]
 240:	e3530000 	cmp	r3, #0
 244:	1affff78 	bne	2c <rbUrlTreeFixup+0x2c>
 248:	ea000000 	b	250 <rbUrlTreeFixup+0x250>
 24c:	e1a00000 	nop			; (mov r0, r0)
 250:	e51b3018 	ldr	r3, [fp, #-24]
 254:	e2833010 	add	r3, r3, #16
 258:	e1a00003 	mov	r0, r3
 25c:	ebfffffe 	bl	0 <rbUrlTreeFixup>
 260:	e1a03000 	mov	r3, r0
 264:	e3a02000 	mov	r2, #0
 268:	e3822001 	orr	r2, r2, #1
 26c:	e5c3202c 	strb	r2, [r3, #44]	; 0x2c
 270:	e3a02000 	mov	r2, #0
 274:	e5c3202d 	strb	r2, [r3, #45]	; 0x2d
 278:	e3a02000 	mov	r2, #0
 27c:	e5c3202e 	strb	r2, [r3, #46]	; 0x2e
 280:	e3a02000 	mov	r2, #0
 284:	e5c3202f 	strb	r2, [r3, #47]	; 0x2f
 288:	e24bd004 	sub	sp, fp, #4
 28c:	e8bd8800 	pop	{fp, pc}

Disassembly of section .text.urlTreeInsert:

00000000 <urlTreeInsert>:
   0:	e92d4800 	push	{fp, lr}
   4:	e28db004 	add	fp, sp, #4
   8:	e24dd020 	sub	sp, sp, #32
   c:	e50b0018 	str	r0, [fp, #-24]
  10:	e50b101c 	str	r1, [fp, #-28]
  14:	e50b2020 	str	r2, [fp, #-32]
  18:	e51b301c 	ldr	r3, [fp, #-28]
  1c:	e2833010 	add	r3, r3, #16
  20:	e50b3010 	str	r3, [fp, #-16]
  24:	e51b0010 	ldr	r0, [fp, #-16]
  28:	ebfffffe 	bl	0 <urlTreeInsert>
  2c:	e50b000c 	str	r0, [fp, #-12]
  30:	e3a03000 	mov	r3, #0
  34:	e50b3008 	str	r3, [fp, #-8]
  38:	e51b0020 	ldr	r0, [fp, #-32]
  3c:	ebfffffe 	bl	0 <strlen>
  40:	e1a03000 	mov	r3, r0
  44:	e14b31b2 	strh	r3, [fp, #-18]	; 0xffffffee
  48:	ea000041 	b	154 <urlTreeInsert+0x154>
  4c:	e51b300c 	ldr	r3, [fp, #-12]
  50:	e5d32000 	ldrb	r2, [r3]
  54:	e5d3c001 	ldrb	ip, [r3, #1]
  58:	e1a0c40c 	lsl	ip, ip, #8
  5c:	e18c2002 	orr	r2, ip, r2
  60:	e5d3c002 	ldrb	ip, [r3, #2]
  64:	e1a0c80c 	lsl	ip, ip, #16
  68:	e18c2002 	orr	r2, ip, r2
  6c:	e5d3c003 	ldrb	ip, [r3, #3]
  70:	e1a0cc0c 	lsl	ip, ip, #24
  74:	e18c2002 	orr	r2, ip, r2
  78:	e1a00002 	mov	r0, r2
  7c:	e5d32004 	ldrb	r2, [r3, #4]
  80:	e5d3c005 	ldrb	ip, [r3, #5]
  84:	e1a0c40c 	lsl	ip, ip, #8
  88:	e18c2002 	orr	r2, ip, r2
  8c:	e5d3c006 	ldrb	ip, [r3, #6]
  90:	e1a0c80c 	lsl	ip, ip, #16
  94:	e18c2002 	orr	r2, ip, r2
  98:	e5d33007 	ldrb	r3, [r3, #7]
  9c:	e1a03c03 	lsl	r3, r3, #24
  a0:	e1833002 	orr	r3, r3, r2
  a4:	e1a01003 	mov	r1, r3
  a8:	e1cb20d4 	ldrd	r2, [fp, #4]
  ac:	e1510003 	cmp	r1, r3
  b0:	01500002 	cmpeq	r0, r2
  b4:	2a000003 	bcs	c8 <urlTreeInsert+0xc8>
  b8:	e51b300c 	ldr	r3, [fp, #-12]
  bc:	e283301c 	add	r3, r3, #28
  c0:	e50b3010 	str	r3, [fp, #-16]
  c4:	ea00001d 	b	140 <urlTreeInsert+0x140>
  c8:	e51b300c 	ldr	r3, [fp, #-12]
  cc:	e5d32000 	ldrb	r2, [r3]
  d0:	e5d3c001 	ldrb	ip, [r3, #1]
  d4:	e1a0c40c 	lsl	ip, ip, #8
  d8:	e18c2002 	orr	r2, ip, r2
  dc:	e5d3c002 	ldrb	ip, [r3, #2]
  e0:	e1a0c80c 	lsl	ip, ip, #16
  e4:	e18c2002 	orr	r2, ip, r2
  e8:	e5d3c003 	ldrb	ip, [r3, #3]
  ec:	e1a0cc0c 	lsl	ip, ip, #24
  f0:	e18c2002 	orr	r2, ip, r2
  f4:	e1a00002 	mov	r0, r2
  f8:	e5d32004 	ldrb	r2, [r3, #4]
  fc:	e5d3c005 	ldrb	ip, [r3, #5]
 100:	e1a0c40c 	lsl	ip, ip, #8
 104:	e18c2002 	orr	r2, ip, r2
 108:	e5d3c006 	ldrb	ip, [r3, #6]
 10c:	e1a0c80c 	lsl	ip, ip, #16
 110:	e18c2002 	orr	r2, ip, r2
 114:	e5d33007 	ldrb	r3, [r3, #7]
 118:	e1a03c03 	lsl	r3, r3, #24
 11c:	e1833002 	orr	r3, r3, r2
 120:	e1a01003 	mov	r1, r3
 124:	e1cb20d4 	ldrd	r2, [fp, #4]
 128:	e1530001 	cmp	r3, r1
 12c:	01520000 	cmpeq	r2, r0
 130:	2a0000bf 	bcs	434 <urlTreeInsert+0x434>
 134:	e51b300c 	ldr	r3, [fp, #-12]
 138:	e2833014 	add	r3, r3, #20
 13c:	e50b3010 	str	r3, [fp, #-16]
 140:	e51b300c 	ldr	r3, [fp, #-12]
 144:	e50b3008 	str	r3, [fp, #-8]
 148:	e51b0010 	ldr	r0, [fp, #-16]
 14c:	ebfffffe 	bl	0 <urlTreeInsert>
 150:	e50b000c 	str	r0, [fp, #-12]
 154:	e51b300c 	ldr	r3, [fp, #-12]
 158:	e3530000 	cmp	r3, #0
 15c:	1affffba 	bne	4c <urlTreeInsert+0x4c>
 160:	e15b31b2 	ldrh	r3, [fp, #-18]	; 0xffffffee
 164:	e2833001 	add	r3, r3, #1
 168:	e51b0018 	ldr	r0, [fp, #-24]
 16c:	e1a01003 	mov	r1, r3
 170:	e51b2010 	ldr	r2, [fp, #-16]
 174:	ebfffffe 	bl	0 <urlTreeInsert>
 178:	e50b000c 	str	r0, [fp, #-12]
 17c:	e51b300c 	ldr	r3, [fp, #-12]
 180:	e3530000 	cmp	r3, #0
 184:	0a0000ab 	beq	438 <urlTreeInsert+0x438>
 188:	e51b300c 	ldr	r3, [fp, #-12]
 18c:	e2833030 	add	r3, r3, #48	; 0x30
 190:	e1a00003 	mov	r0, r3
 194:	e51b1020 	ldr	r1, [fp, #-32]
 198:	ebfffffe 	bl	0 <strcpy>
 19c:	e51b300c 	ldr	r3, [fp, #-12]
 1a0:	e5db2004 	ldrb	r2, [fp, #4]
 1a4:	e3a01000 	mov	r1, #0
 1a8:	e1812002 	orr	r2, r1, r2
 1ac:	e5c32000 	strb	r2, [r3]
 1b0:	e5db2005 	ldrb	r2, [fp, #5]
 1b4:	e3a01000 	mov	r1, #0
 1b8:	e1812002 	orr	r2, r1, r2
 1bc:	e5c32001 	strb	r2, [r3, #1]
 1c0:	e5db2006 	ldrb	r2, [fp, #6]
 1c4:	e3a01000 	mov	r1, #0
 1c8:	e1812002 	orr	r2, r1, r2
 1cc:	e5c32002 	strb	r2, [r3, #2]
 1d0:	e5db2007 	ldrb	r2, [fp, #7]
 1d4:	e3a01000 	mov	r1, #0
 1d8:	e1812002 	orr	r2, r1, r2
 1dc:	e5c32003 	strb	r2, [r3, #3]
 1e0:	e5db2008 	ldrb	r2, [fp, #8]
 1e4:	e3a01000 	mov	r1, #0
 1e8:	e1812002 	orr	r2, r1, r2
 1ec:	e5c32004 	strb	r2, [r3, #4]
 1f0:	e5db2009 	ldrb	r2, [fp, #9]
 1f4:	e3a01000 	mov	r1, #0
 1f8:	e1812002 	orr	r2, r1, r2
 1fc:	e5c32005 	strb	r2, [r3, #5]
 200:	e5db200a 	ldrb	r2, [fp, #10]
 204:	e3a01000 	mov	r1, #0
 208:	e1812002 	orr	r2, r1, r2
 20c:	e5c32006 	strb	r2, [r3, #6]
 210:	e5db200b 	ldrb	r2, [fp, #11]
 214:	e3a01000 	mov	r1, #0
 218:	e1812002 	orr	r2, r1, r2
 21c:	e5c32007 	strb	r2, [r3, #7]
 220:	e51b300c 	ldr	r3, [fp, #-12]
 224:	e3a02000 	mov	r2, #0
 228:	e5c32008 	strb	r2, [r3, #8]
 22c:	e3a02000 	mov	r2, #0
 230:	e5c32009 	strb	r2, [r3, #9]
 234:	e51b300c 	ldr	r3, [fp, #-12]
 238:	e55b2012 	ldrb	r2, [fp, #-18]
 23c:	e3a01000 	mov	r1, #0
 240:	e1812002 	orr	r2, r1, r2
 244:	e5c3200a 	strb	r2, [r3, #10]
 248:	e55b2011 	ldrb	r2, [fp, #-17]
 24c:	e3a01000 	mov	r1, #0
 250:	e1812002 	orr	r2, r1, r2
 254:	e5c3200b 	strb	r2, [r3, #11]
 258:	e51b300c 	ldr	r3, [fp, #-12]
 25c:	e3e02000 	mvn	r2, #0
 260:	e5c32014 	strb	r2, [r3, #20]
 264:	e3e02000 	mvn	r2, #0
 268:	e5c32015 	strb	r2, [r3, #21]
 26c:	e3e02000 	mvn	r2, #0
 270:	e5c32016 	strb	r2, [r3, #22]
 274:	e3e02000 	mvn	r2, #0
 278:	e5c32017 	strb	r2, [r3, #23]
 27c:	e51b300c 	ldr	r3, [fp, #-12]
 280:	e3e02000 	mvn	r2, #0
 284:	e5c3201c 	strb	r2, [r3, #28]
 288:	e3e02000 	mvn	r2, #0
 28c:	e5c3201d 	strb	r2, [r3, #29]
 290:	e3e02000 	mvn	r2, #0
 294:	e5c3201e 	strb	r2, [r3, #30]
 298:	e3e02000 	mvn	r2, #0
 29c:	e5c3201f 	strb	r2, [r3, #31]
 2a0:	e51b300c 	ldr	r3, [fp, #-12]
 2a4:	e2833024 	add	r3, r3, #36	; 0x24
 2a8:	e51b0008 	ldr	r0, [fp, #-8]
 2ac:	e1a01003 	mov	r1, r3
 2b0:	ebfffffe 	bl	0 <urlTreeInsert>
 2b4:	e51b3008 	ldr	r3, [fp, #-8]
 2b8:	e3530000 	cmp	r3, #0
 2bc:	1a00000a 	bne	2ec <urlTreeInsert+0x2ec>
 2c0:	e51b300c 	ldr	r3, [fp, #-12]
 2c4:	e3a02000 	mov	r2, #0
 2c8:	e3822001 	orr	r2, r2, #1
 2cc:	e5c3202c 	strb	r2, [r3, #44]	; 0x2c
 2d0:	e3a02000 	mov	r2, #0
 2d4:	e5c3202d 	strb	r2, [r3, #45]	; 0x2d
 2d8:	e3a02000 	mov	r2, #0
 2dc:	e5c3202e 	strb	r2, [r3, #46]	; 0x2e
 2e0:	e3a02000 	mov	r2, #0
 2e4:	e5c3202f 	strb	r2, [r3, #47]	; 0x2f
 2e8:	ea000012 	b	338 <urlTreeInsert+0x338>
 2ec:	e51b300c 	ldr	r3, [fp, #-12]
 2f0:	e3a02000 	mov	r2, #0
 2f4:	e5c3202c 	strb	r2, [r3, #44]	; 0x2c
 2f8:	e3a02000 	mov	r2, #0
 2fc:	e5c3202d 	strb	r2, [r3, #45]	; 0x2d
 300:	e3a02000 	mov	r2, #0
 304:	e5c3202e 	strb	r2, [r3, #46]	; 0x2e
 308:	e3a02000 	mov	r2, #0
 30c:	e5c3202f 	strb	r2, [r3, #47]	; 0x2f
 310:	e51b3008 	ldr	r3, [fp, #-8]
 314:	e2833024 	add	r3, r3, #36	; 0x24
 318:	e1a00003 	mov	r0, r3
 31c:	ebfffffe 	bl	0 <urlTreeInsert>
 320:	e1a03000 	mov	r3, r0
 324:	e3530000 	cmp	r3, #0
 328:	0a000002 	beq	338 <urlTreeInsert+0x338>
 32c:	e51b001c 	ldr	r0, [fp, #-28]
 330:	e51b100c 	ldr	r1, [fp, #-12]
 334:	ebfffffe 	bl	0 <urlTreeInsert>
 338:	e51b201c 	ldr	r2, [fp, #-28]
 33c:	e51b3010 	ldr	r3, [fp, #-16]
 340:	e2821008 	add	r1, r2, #8
 344:	e1a02003 	mov	r2, r3
 348:	e3a03008 	mov	r3, #8
 34c:	e1a00001 	mov	r0, r1
 350:	e1a01002 	mov	r1, r2
 354:	e1a02003 	mov	r2, r3
 358:	ebfffffe 	bl	0 <memcpy>
 35c:	e51b301c 	ldr	r3, [fp, #-28]
 360:	e5d32000 	ldrb	r2, [r3]
 364:	e5d31001 	ldrb	r1, [r3, #1]
 368:	e1a01401 	lsl	r1, r1, #8
 36c:	e1812002 	orr	r2, r1, r2
 370:	e5d31002 	ldrb	r1, [r3, #2]
 374:	e1a01801 	lsl	r1, r1, #16
 378:	e1812002 	orr	r2, r1, r2
 37c:	e5d33003 	ldrb	r3, [r3, #3]
 380:	e1a03c03 	lsl	r3, r3, #24
 384:	e1833002 	orr	r3, r3, r2
 388:	e3730001 	cmn	r3, #1
 38c:	1a000008 	bne	3b4 <urlTreeInsert+0x3b4>
 390:	e51b201c 	ldr	r2, [fp, #-28]
 394:	e51b3010 	ldr	r3, [fp, #-16]
 398:	e1a01002 	mov	r1, r2
 39c:	e1a02003 	mov	r2, r3
 3a0:	e3a03008 	mov	r3, #8
 3a4:	e1a00001 	mov	r0, r1
 3a8:	e1a01002 	mov	r1, r2
 3ac:	e1a02003 	mov	r2, r3
 3b0:	ebfffffe 	bl	0 <memcpy>
 3b4:	e51b301c 	ldr	r3, [fp, #-28]
 3b8:	e5d32024 	ldrb	r2, [r3, #36]	; 0x24
 3bc:	e5d31025 	ldrb	r1, [r3, #37]	; 0x25
 3c0:	e1a01401 	lsl	r1, r1, #8
 3c4:	e1812002 	orr	r2, r1, r2
 3c8:	e5d31026 	ldrb	r1, [r3, #38]	; 0x26
 3cc:	e1a01801 	lsl	r1, r1, #16
 3d0:	e1812002 	orr	r2, r1, r2
 3d4:	e5d33027 	ldrb	r3, [r3, #39]	; 0x27
 3d8:	e1a03c03 	lsl	r3, r3, #24
 3dc:	e1833002 	orr	r3, r3, r2
 3e0:	e2832001 	add	r2, r3, #1
 3e4:	e51b301c 	ldr	r3, [fp, #-28]
 3e8:	e6ef1072 	uxtb	r1, r2
 3ec:	e3a00000 	mov	r0, #0
 3f0:	e1801001 	orr	r1, r0, r1
 3f4:	e5c31024 	strb	r1, [r3, #36]	; 0x24
 3f8:	e1a01422 	lsr	r1, r2, #8
 3fc:	e6ef1071 	uxtb	r1, r1
 400:	e3a00000 	mov	r0, #0
 404:	e1801001 	orr	r1, r0, r1
 408:	e5c31025 	strb	r1, [r3, #37]	; 0x25
 40c:	e1a01822 	lsr	r1, r2, #16
 410:	e6ef1071 	uxtb	r1, r1
 414:	e3a00000 	mov	r0, #0
 418:	e1801001 	orr	r1, r0, r1
 41c:	e5c31026 	strb	r1, [r3, #38]	; 0x26
 420:	e1a02c22 	lsr	r2, r2, #24
 424:	e3a01000 	mov	r1, #0
 428:	e1812002 	orr	r2, r1, r2
 42c:	e5c32027 	strb	r2, [r3, #39]	; 0x27
 430:	ea000000 	b	438 <urlTreeInsert+0x438>
 434:	e1a00000 	nop			; (mov r0, r0)
 438:	e24bd004 	sub	sp, fp, #4
 43c:	e8bd8800 	pop	{fp, pc}

Disassembly of section .text.urlTreeTraversal:

00000000 <urlTreeTraversal>:
   0:	e92d4830 	push	{r4, r5, fp, lr}
   4:	e28db00c 	add	fp, sp, #12
   8:	e24dd018 	sub	sp, sp, #24
   c:	e50b0018 	str	r0, [fp, #-24]
  10:	e51b3018 	ldr	r3, [fp, #-24]
  14:	e2833014 	add	r3, r3, #20
  18:	e1a00003 	mov	r0, r3
  1c:	ebfffffe 	bl	0 <urlTreeTraversal>
  20:	e50b0014 	str	r0, [fp, #-20]
  24:	e51b3018 	ldr	r3, [fp, #-24]
  28:	e283301c 	add	r3, r3, #28
  2c:	e1a00003 	mov	r0, r3
  30:	ebfffffe 	bl	0 <urlTreeTraversal>
  34:	e50b0010 	str	r0, [fp, #-16]
  38:	e51b3014 	ldr	r3, [fp, #-20]
  3c:	e3530000 	cmp	r3, #0
  40:	0a000001 	beq	4c <urlTreeTraversal+0x4c>
  44:	e51b0014 	ldr	r0, [fp, #-20]
  48:	ebfffffe 	bl	0 <urlTreeTraversal>
  4c:	e51b3018 	ldr	r3, [fp, #-24]
  50:	e5d32000 	ldrb	r2, [r3]
  54:	e5d3c001 	ldrb	ip, [r3, #1]
  58:	e1a0c40c 	lsl	ip, ip, #8
  5c:	e18c2002 	orr	r2, ip, r2
  60:	e5d3c002 	ldrb	ip, [r3, #2]
  64:	e1a0c80c 	lsl	ip, ip, #16
  68:	e18c2002 	orr	r2, ip, r2
  6c:	e5d3c003 	ldrb	ip, [r3, #3]
  70:	e1a0cc0c 	lsl	ip, ip, #24
  74:	e18c2002 	orr	r2, ip, r2
  78:	e1a00002 	mov	r0, r2
  7c:	e5d32004 	ldrb	r2, [r3, #4]
  80:	e5d3c005 	ldrb	ip, [r3, #5]
  84:	e1a0c40c 	lsl	ip, ip, #8
  88:	e18c2002 	orr	r2, ip, r2
  8c:	e5d3c006 	ldrb	ip, [r3, #6]
  90:	e1a0c80c 	lsl	ip, ip, #16
  94:	e18c2002 	orr	r2, ip, r2
  98:	e5d33007 	ldrb	r3, [r3, #7]
  9c:	e1a03c03 	lsl	r3, r3, #24
  a0:	e1833002 	orr	r3, r3, r2
  a4:	e1a01003 	mov	r1, r3
  a8:	e1a04001 	mov	r4, r1
  ac:	e3a05000 	mov	r5, #0
  b0:	e1a0c004 	mov	ip, r4
  b4:	e51b3018 	ldr	r3, [fp, #-24]
  b8:	e2833030 	add	r3, r3, #48	; 0x30
  bc:	e58d3000 	str	r3, [sp]
  c0:	e3a00004 	mov	r0, #4
  c4:	e59f3034 	ldr	r3, [pc, #52]	; 100 <urlTreeTraversal+0x100>
  c8:	e08f3003 	add	r3, pc, r3
  cc:	e1a01003 	mov	r1, r3
  d0:	e59f302c 	ldr	r3, [pc, #44]	; 104 <urlTreeTraversal+0x104>
  d4:	e08f3003 	add	r3, pc, r3
  d8:	e1a02003 	mov	r2, r3
  dc:	e1a0300c 	mov	r3, ip
  e0:	ebfffffe 	bl	0 <__android_log_print>
  e4:	e51b3010 	ldr	r3, [fp, #-16]
  e8:	e3530000 	cmp	r3, #0
  ec:	0a000001 	beq	f8 <urlTreeTraversal+0xf8>
  f0:	e51b0010 	ldr	r0, [fp, #-16]
  f4:	ebfffffe 	bl	0 <urlTreeTraversal>
  f8:	e24bd00c 	sub	sp, fp, #12
  fc:	e8bd8830 	pop	{r4, r5, fp, pc}
 100:	0000003c 	.word	0x0000003c
 104:	000001d0 	.word	0x000001d0

Disassembly of section .text.Java_com_UltimateImgSpider_SpiderService_jniAddUrl:

00000000 <Java_com_UltimateImgSpider_SpiderService_jniAddUrl>:
   0:	e92d48d0 	push	{r4, r6, r7, fp, lr}
   4:	e28db010 	add	fp, sp, #16
   8:	e24dd044 	sub	sp, sp, #68	; 0x44
   c:	e50b0030 	str	r0, [fp, #-48]	; 0x30
  10:	e50b1034 	str	r1, [fp, #-52]	; 0x34
  14:	e50b2038 	str	r2, [fp, #-56]	; 0x38
  18:	e50b303c 	str	r3, [fp, #-60]	; 0x3c
  1c:	e59f4244 	ldr	r4, [pc, #580]	; 268 <Java_com_UltimateImgSpider_SpiderService_jniAddUrl+0x268>
  20:	e08f4004 	add	r4, pc, r4
  24:	e3a03000 	mov	r3, #0
  28:	e54b3029 	strb	r3, [fp, #-41]	; 0x29
  2c:	e59b3004 	ldr	r3, [fp, #4]
  30:	e3530000 	cmp	r3, #0
  34:	1a000003 	bne	48 <Java_com_UltimateImgSpider_SpiderService_jniAddUrl+0x48>
  38:	e59f322c 	ldr	r3, [pc, #556]	; 26c <Java_com_UltimateImgSpider_SpiderService_jniAddUrl+0x26c>
  3c:	e7943003 	ldr	r3, [r4, r3]
  40:	e5933000 	ldr	r3, [r3]
  44:	ea000003 	b	58 <Java_com_UltimateImgSpider_SpiderService_jniAddUrl+0x58>
  48:	e59f321c 	ldr	r3, [pc, #540]	; 26c <Java_com_UltimateImgSpider_SpiderService_jniAddUrl+0x26c>
  4c:	e7943003 	ldr	r3, [r4, r3]
  50:	e5933000 	ldr	r3, [r3]
  54:	e2833028 	add	r3, r3, #40	; 0x28
  58:	e50b3028 	str	r3, [fp, #-40]	; 0x28
  5c:	e51b3030 	ldr	r3, [fp, #-48]	; 0x30
  60:	e5933000 	ldr	r3, [r3]
  64:	e59332a4 	ldr	r3, [r3, #676]	; 0x2a4
  68:	e51b0030 	ldr	r0, [fp, #-48]	; 0x30
  6c:	e51b1038 	ldr	r1, [fp, #-56]	; 0x38
  70:	e3a02000 	mov	r2, #0
  74:	e12fff33 	blx	r3
  78:	e50b0024 	str	r0, [fp, #-36]	; 0x24
  7c:	e51b3030 	ldr	r3, [fp, #-48]	; 0x30
  80:	e5933000 	ldr	r3, [r3]
  84:	e59332e0 	ldr	r3, [r3, #736]	; 0x2e0
  88:	e51b0030 	ldr	r0, [fp, #-48]	; 0x30
  8c:	e51b103c 	ldr	r1, [fp, #-60]	; 0x3c
  90:	e3a02000 	mov	r2, #0
  94:	e12fff33 	blx	r3
  98:	e50b0020 	str	r0, [fp, #-32]
  9c:	e51b3020 	ldr	r3, [fp, #-32]
  a0:	e2833004 	add	r3, r3, #4
  a4:	e24b201c 	sub	r2, fp, #28
  a8:	e1a01002 	mov	r1, r2
  ac:	e1a02003 	mov	r2, r3
  b0:	e3a03008 	mov	r3, #8
  b4:	e1a00001 	mov	r0, r1
  b8:	e1a01002 	mov	r1, r2
  bc:	e1a02003 	mov	r2, r3
  c0:	ebfffffe 	bl	0 <memcpy>
  c4:	e59f31a4 	ldr	r3, [pc, #420]	; 270 <Java_com_UltimateImgSpider_SpiderService_jniAddUrl+0x270>
  c8:	e7943003 	ldr	r3, [r4, r3]
  cc:	e51b2034 	ldr	r2, [fp, #-52]	; 0x34
  d0:	e5832000 	str	r2, [r3]
  d4:	e51b3028 	ldr	r3, [fp, #-40]	; 0x28
  d8:	e5d32024 	ldrb	r2, [r3, #36]	; 0x24
  dc:	e5d31025 	ldrb	r1, [r3, #37]	; 0x25
  e0:	e1a01401 	lsl	r1, r1, #8
  e4:	e1812002 	orr	r2, r1, r2
  e8:	e5d31026 	ldrb	r1, [r3, #38]	; 0x26
  ec:	e1a01801 	lsl	r1, r1, #16
  f0:	e1812002 	orr	r2, r1, r2
  f4:	e5d33027 	ldrb	r3, [r3, #39]	; 0x27
  f8:	e1a03c03 	lsl	r3, r3, #24
  fc:	e1833002 	orr	r3, r3, r2
 100:	e1a04003 	mov	r4, r3
 104:	e51b0024 	ldr	r0, [fp, #-36]	; 0x24
 108:	ebfffffe 	bl	0 <strlen>
 10c:	e1a01000 	mov	r1, r0
 110:	e14b21dc 	ldrd	r2, [fp, #-28]	; 0xffffffe4
 114:	e1a06003 	mov	r6, r3
 118:	e3a07000 	mov	r7, #0
 11c:	e51b3024 	ldr	r3, [fp, #-36]	; 0x24
 120:	e58d3000 	str	r3, [sp]
 124:	e58d1004 	str	r1, [sp, #4]
 128:	e1cd60f8 	strd	r6, [sp, #8]
 12c:	e59b3004 	ldr	r3, [fp, #4]
 130:	e58d3010 	str	r3, [sp, #16]
 134:	e3a00004 	mov	r0, #4
 138:	e59f3134 	ldr	r3, [pc, #308]	; 274 <Java_com_UltimateImgSpider_SpiderService_jniAddUrl+0x274>
 13c:	e08f3003 	add	r3, pc, r3
 140:	e1a01003 	mov	r1, r3
 144:	e59f312c 	ldr	r3, [pc, #300]	; 278 <Java_com_UltimateImgSpider_SpiderService_jniAddUrl+0x278>
 148:	e08f3003 	add	r3, pc, r3
 14c:	e1a02003 	mov	r2, r3
 150:	e1a03004 	mov	r3, r4
 154:	ebfffffe 	bl	0 <__android_log_print>
 158:	e51b3028 	ldr	r3, [fp, #-40]	; 0x28
 15c:	e5d32024 	ldrb	r2, [r3, #36]	; 0x24
 160:	e5d31025 	ldrb	r1, [r3, #37]	; 0x25
 164:	e1a01401 	lsl	r1, r1, #8
 168:	e1812002 	orr	r2, r1, r2
 16c:	e5d31026 	ldrb	r1, [r3, #38]	; 0x26
 170:	e1a01801 	lsl	r1, r1, #16
 174:	e1812002 	orr	r2, r1, r2
 178:	e5d33027 	ldrb	r3, [r3, #39]	; 0x27
 17c:	e1a03c03 	lsl	r3, r3, #24
 180:	e1833002 	orr	r3, r3, r2
 184:	e3530009 	cmp	r3, #9
 188:	8a000005 	bhi	1a4 <Java_com_UltimateImgSpider_SpiderService_jniAddUrl+0x1a4>
 18c:	e14b21dc 	ldrd	r2, [fp, #-28]	; 0xffffffe4
 190:	e1cd20f0 	strd	r2, [sp]
 194:	e51b0030 	ldr	r0, [fp, #-48]	; 0x30
 198:	e51b1028 	ldr	r1, [fp, #-40]	; 0x28
 19c:	e51b2024 	ldr	r2, [fp, #-36]	; 0x24
 1a0:	ebfffffe 	bl	0 <Java_com_UltimateImgSpider_SpiderService_jniAddUrl>
 1a4:	e51b3028 	ldr	r3, [fp, #-40]	; 0x28
 1a8:	e5d32024 	ldrb	r2, [r3, #36]	; 0x24
 1ac:	e5d31025 	ldrb	r1, [r3, #37]	; 0x25
 1b0:	e1a01401 	lsl	r1, r1, #8
 1b4:	e1812002 	orr	r2, r1, r2
 1b8:	e5d31026 	ldrb	r1, [r3, #38]	; 0x26
 1bc:	e1a01801 	lsl	r1, r1, #16
 1c0:	e1812002 	orr	r2, r1, r2
 1c4:	e5d33027 	ldrb	r3, [r3, #39]	; 0x27
 1c8:	e1a03c03 	lsl	r3, r3, #24
 1cc:	e1833002 	orr	r3, r3, r2
 1d0:	e353000a 	cmp	r3, #10
 1d4:	1a000006 	bne	1f4 <Java_com_UltimateImgSpider_SpiderService_jniAddUrl+0x1f4>
 1d8:	e51b3028 	ldr	r3, [fp, #-40]	; 0x28
 1dc:	e2833010 	add	r3, r3, #16
 1e0:	e1a00003 	mov	r0, r3
 1e4:	ebfffffe 	bl	0 <Java_com_UltimateImgSpider_SpiderService_jniAddUrl>
 1e8:	e1a03000 	mov	r3, r0
 1ec:	e1a00003 	mov	r0, r3
 1f0:	ebfffffe 	bl	0 <Java_com_UltimateImgSpider_SpiderService_jniAddUrl>
 1f4:	e51b3030 	ldr	r3, [fp, #-48]	; 0x30
 1f8:	e5933000 	ldr	r3, [r3]
 1fc:	e59332a8 	ldr	r3, [r3, #680]	; 0x2a8
 200:	e51b0030 	ldr	r0, [fp, #-48]	; 0x30
 204:	e51b1038 	ldr	r1, [fp, #-56]	; 0x38
 208:	e51b2024 	ldr	r2, [fp, #-36]	; 0x24
 20c:	e12fff33 	blx	r3
 210:	e51b3030 	ldr	r3, [fp, #-48]	; 0x30
 214:	e5933000 	ldr	r3, [r3]
 218:	e593c300 	ldr	ip, [r3, #768]	; 0x300
 21c:	e51b0030 	ldr	r0, [fp, #-48]	; 0x30
 220:	e51b103c 	ldr	r1, [fp, #-60]	; 0x3c
 224:	e51b2020 	ldr	r2, [fp, #-32]
 228:	e3a03000 	mov	r3, #0
 22c:	e12fff3c 	blx	ip
 230:	e51b3028 	ldr	r3, [fp, #-40]	; 0x28
 234:	e5d32024 	ldrb	r2, [r3, #36]	; 0x24
 238:	e5d31025 	ldrb	r1, [r3, #37]	; 0x25
 23c:	e1a01401 	lsl	r1, r1, #8
 240:	e1812002 	orr	r2, r1, r2
 244:	e5d31026 	ldrb	r1, [r3, #38]	; 0x26
 248:	e1a01801 	lsl	r1, r1, #16
 24c:	e1812002 	orr	r2, r1, r2
 250:	e5d33027 	ldrb	r3, [r3, #39]	; 0x27
 254:	e1a03c03 	lsl	r3, r3, #24
 258:	e1833002 	orr	r3, r3, r2
 25c:	e1a00003 	mov	r0, r3
 260:	e24bd010 	sub	sp, fp, #16
 264:	e8bd88d0 	pop	{r4, r6, r7, fp, pc}
 268:	00000240 	.word	0x00000240
	...
 274:	0000013c 	.word	0x0000013c
 278:	000002d8 	.word	0x000002d8

Disassembly of section .text.urlSimilarity:

00000000 <urlSimilarity>:
   0:	e52db004 	push	{fp}		; (str fp, [sp, #-4]!)
   4:	e28db000 	add	fp, sp, #0
   8:	e24dd024 	sub	sp, sp, #36	; 0x24
   c:	e50b0018 	str	r0, [fp, #-24]
  10:	e50b2020 	str	r2, [fp, #-32]
  14:	e14b11ba 	strh	r1, [fp, #-26]	; 0xffffffe6
  18:	e14b31bc 	strh	r3, [fp, #-28]	; 0xffffffe4
  1c:	e15b21ba 	ldrh	r2, [fp, #-26]	; 0xffffffe6
  20:	e15b31bc 	ldrh	r3, [fp, #-28]	; 0xffffffe4
  24:	e1520003 	cmp	r2, r3
  28:	31a03002 	movcc	r3, r2
  2c:	e14b31b0 	strh	r3, [fp, #-16]
  30:	e15b31b0 	ldrh	r3, [fp, #-16]
  34:	e1a03123 	lsr	r3, r3, #2
  38:	e14b31b0 	strh	r3, [fp, #-16]
  3c:	e15b31b0 	ldrh	r3, [fp, #-16]
  40:	e14b30be 	strh	r3, [fp, #-14]
  44:	e51b3018 	ldr	r3, [fp, #-24]
  48:	e50b300c 	str	r3, [fp, #-12]
  4c:	e51b3020 	ldr	r3, [fp, #-32]
  50:	e50b3008 	str	r3, [fp, #-8]
  54:	e3a03000 	mov	r3, #0
  58:	e14b31b2 	strh	r3, [fp, #-18]	; 0xffffffee
  5c:	ea00000e 	b	9c <urlSimilarity+0x9c>
  60:	e15b31b2 	ldrh	r3, [fp, #-18]	; 0xffffffee
  64:	e1a03103 	lsl	r3, r3, #2
  68:	e51b200c 	ldr	r2, [fp, #-12]
  6c:	e0823003 	add	r3, r2, r3
  70:	e5932000 	ldr	r2, [r3]
  74:	e15b31b2 	ldrh	r3, [fp, #-18]	; 0xffffffee
  78:	e1a03103 	lsl	r3, r3, #2
  7c:	e51b1008 	ldr	r1, [fp, #-8]
  80:	e0813003 	add	r3, r1, r3
  84:	e5933000 	ldr	r3, [r3]
  88:	e1520003 	cmp	r2, r3
  8c:	1a000007 	bne	b0 <urlSimilarity+0xb0>
  90:	e15b31b2 	ldrh	r3, [fp, #-18]	; 0xffffffee
  94:	e2833001 	add	r3, r3, #1
  98:	e14b31b2 	strh	r3, [fp, #-18]	; 0xffffffee
  9c:	e15b21b2 	ldrh	r2, [fp, #-18]	; 0xffffffee
  a0:	e15b30be 	ldrh	r3, [fp, #-14]
  a4:	e1520003 	cmp	r2, r3
  a8:	3affffec 	bcc	60 <urlSimilarity+0x60>
  ac:	ea000000 	b	b4 <urlSimilarity+0xb4>
  b0:	e1a00000 	nop			; (mov r0, r0)
  b4:	e15b31b2 	ldrh	r3, [fp, #-18]	; 0xffffffee
  b8:	e1a03103 	lsl	r3, r3, #2
  bc:	e14b31b2 	strh	r3, [fp, #-18]	; 0xffffffee
  c0:	ea00000c 	b	f8 <urlSimilarity+0xf8>
  c4:	e15b31b2 	ldrh	r3, [fp, #-18]	; 0xffffffee
  c8:	e51b2018 	ldr	r2, [fp, #-24]
  cc:	e0823003 	add	r3, r2, r3
  d0:	e5d32000 	ldrb	r2, [r3]
  d4:	e15b31b2 	ldrh	r3, [fp, #-18]	; 0xffffffee
  d8:	e51b1020 	ldr	r1, [fp, #-32]
  dc:	e0813003 	add	r3, r1, r3
  e0:	e5d33000 	ldrb	r3, [r3]
  e4:	e1520003 	cmp	r2, r3
  e8:	1a000007 	bne	10c <urlSimilarity+0x10c>
  ec:	e15b31b2 	ldrh	r3, [fp, #-18]	; 0xffffffee
  f0:	e2833001 	add	r3, r3, #1
  f4:	e14b31b2 	strh	r3, [fp, #-18]	; 0xffffffee
  f8:	e15b21b2 	ldrh	r2, [fp, #-18]	; 0xffffffee
  fc:	e15b31b0 	ldrh	r3, [fp, #-16]
 100:	e1520003 	cmp	r2, r3
 104:	3affffee 	bcc	c4 <urlSimilarity+0xc4>
 108:	ea000000 	b	110 <urlSimilarity+0x110>
 10c:	e1a00000 	nop			; (mov r0, r0)
 110:	e15b31b2 	ldrh	r3, [fp, #-18]	; 0xffffffee
 114:	e1a00003 	mov	r0, r3
 118:	e28bd000 	add	sp, fp, #0
 11c:	e8bd0800 	pop	{fp}
 120:	e12fff1e 	bx	lr

Disassembly of section .text.Java_com_UltimateImgSpider_SpiderService_jniFindNextUrlToLoad:

00000000 <Java_com_UltimateImgSpider_SpiderService_jniFindNextUrlToLoad>:
   0:	e92d4800 	push	{fp, lr}
   4:	e28db004 	add	fp, sp, #4
   8:	e24dd038 	sub	sp, sp, #56	; 0x38
   c:	e50b0030 	str	r0, [fp, #-48]	; 0x30
  10:	e50b1034 	str	r1, [fp, #-52]	; 0x34
  14:	e50b2038 	str	r2, [fp, #-56]	; 0x38
  18:	e50b303c 	str	r3, [fp, #-60]	; 0x3c
  1c:	e59f33e0 	ldr	r3, [pc, #992]	; 404 <Java_com_UltimateImgSpider_SpiderService_jniFindNextUrlToLoad+0x404>
  20:	e08f3003 	add	r3, pc, r3
  24:	e51b203c 	ldr	r2, [fp, #-60]	; 0x3c
  28:	e3520000 	cmp	r2, #0
  2c:	1a000003 	bne	40 <Java_com_UltimateImgSpider_SpiderService_jniFindNextUrlToLoad+0x40>
  30:	e59f23d0 	ldr	r2, [pc, #976]	; 408 <Java_com_UltimateImgSpider_SpiderService_jniFindNextUrlToLoad+0x408>
  34:	e7933002 	ldr	r3, [r3, r2]
  38:	e5933000 	ldr	r3, [r3]
  3c:	ea000003 	b	50 <Java_com_UltimateImgSpider_SpiderService_jniFindNextUrlToLoad+0x50>
  40:	e59f23c0 	ldr	r2, [pc, #960]	; 408 <Java_com_UltimateImgSpider_SpiderService_jniFindNextUrlToLoad+0x408>
  44:	e7933002 	ldr	r3, [r3, r2]
  48:	e5933000 	ldr	r3, [r3]
  4c:	e2833028 	add	r3, r3, #40	; 0x28
  50:	e50b3010 	str	r3, [fp, #-16]
  54:	e59f33b0 	ldr	r3, [pc, #944]	; 40c <Java_com_UltimateImgSpider_SpiderService_jniFindNextUrlToLoad+0x40c>
  58:	e08f3003 	add	r3, pc, r3
  5c:	e50b3020 	str	r3, [fp, #-32]
  60:	e3a03000 	mov	r3, #0
  64:	e50b301c 	str	r3, [fp, #-28]
  68:	e51b3010 	ldr	r3, [fp, #-16]
  6c:	e1a00003 	mov	r0, r3
  70:	ebfffffe 	bl	0 <Java_com_UltimateImgSpider_SpiderService_jniFindNextUrlToLoad>
  74:	e50b0018 	str	r0, [fp, #-24]
  78:	e51b3018 	ldr	r3, [fp, #-24]
  7c:	e3530000 	cmp	r3, #0
  80:	0a0000ca 	beq	3b0 <Java_com_UltimateImgSpider_SpiderService_jniFindNextUrlToLoad+0x3b0>
  84:	e51b3038 	ldr	r3, [fp, #-56]	; 0x38
  88:	e3530000 	cmp	r3, #0
  8c:	1a000023 	bne	120 <Java_com_UltimateImgSpider_SpiderService_jniFindNextUrlToLoad+0x120>
  90:	e3a03000 	mov	r3, #0
  94:	e50b3024 	str	r3, [fp, #-36]	; 0x24
  98:	ea000011 	b	e4 <Java_com_UltimateImgSpider_SpiderService_jniFindNextUrlToLoad+0xe4>
  9c:	e51b3018 	ldr	r3, [fp, #-24]
  a0:	e5d32008 	ldrb	r2, [r3, #8]
  a4:	e5d33009 	ldrb	r3, [r3, #9]
  a8:	e1a03403 	lsl	r3, r3, #8
  ac:	e1833002 	orr	r3, r3, r2
  b0:	e6ff3073 	uxth	r3, r3
  b4:	e3530000 	cmp	r3, #0
  b8:	1a000003 	bne	cc <Java_com_UltimateImgSpider_SpiderService_jniFindNextUrlToLoad+0xcc>
  bc:	e51b3018 	ldr	r3, [fp, #-24]
  c0:	e50b301c 	str	r3, [fp, #-28]
  c4:	e1a00000 	nop			; (mov r0, r0)
  c8:	ea0000b8 	b	3b0 <Java_com_UltimateImgSpider_SpiderService_jniFindNextUrlToLoad+0x3b0>
  cc:	e51b0018 	ldr	r0, [fp, #-24]
  d0:	ebfffffe 	bl	0 <Java_com_UltimateImgSpider_SpiderService_jniFindNextUrlToLoad>
  d4:	e50b0018 	str	r0, [fp, #-24]
  d8:	e51b3024 	ldr	r3, [fp, #-36]	; 0x24
  dc:	e2833001 	add	r3, r3, #1
  e0:	e50b3024 	str	r3, [fp, #-36]	; 0x24
  e4:	e51b2024 	ldr	r2, [fp, #-36]	; 0x24
  e8:	e51b3010 	ldr	r3, [fp, #-16]
  ec:	e5d31024 	ldrb	r1, [r3, #36]	; 0x24
  f0:	e5d30025 	ldrb	r0, [r3, #37]	; 0x25
  f4:	e1a00400 	lsl	r0, r0, #8
  f8:	e1801001 	orr	r1, r0, r1
  fc:	e5d30026 	ldrb	r0, [r3, #38]	; 0x26
 100:	e1a00800 	lsl	r0, r0, #16
 104:	e1801001 	orr	r1, r0, r1
 108:	e5d33027 	ldrb	r3, [r3, #39]	; 0x27
 10c:	e1a03c03 	lsl	r3, r3, #24
 110:	e1833001 	orr	r3, r3, r1
 114:	e1520003 	cmp	r2, r3
 118:	3affffdf 	bcc	9c <Java_com_UltimateImgSpider_SpiderService_jniFindNextUrlToLoad+0x9c>
 11c:	ea0000a3 	b	3b0 <Java_com_UltimateImgSpider_SpiderService_jniFindNextUrlToLoad+0x3b0>
 120:	e3a03001 	mov	r3, #1
 124:	e54b3027 	strb	r3, [fp, #-39]	; 0x27
 128:	e3a03000 	mov	r3, #0
 12c:	e50b3014 	str	r3, [fp, #-20]
 130:	e51b3030 	ldr	r3, [fp, #-48]	; 0x30
 134:	e5933000 	ldr	r3, [r3]
 138:	e59332a4 	ldr	r3, [r3, #676]	; 0x2a4
 13c:	e51b0030 	ldr	r0, [fp, #-48]	; 0x30
 140:	e51b1038 	ldr	r1, [fp, #-56]	; 0x38
 144:	e3a02000 	mov	r2, #0
 148:	e12fff33 	blx	r3
 14c:	e50b000c 	str	r0, [fp, #-12]
 150:	e51b000c 	ldr	r0, [fp, #-12]
 154:	ebfffffe 	bl	0 <strlen>
 158:	e1a03000 	mov	r3, r0
 15c:	e14b32b6 	strh	r3, [fp, #-38]	; 0xffffffda
 160:	e51b300c 	ldr	r3, [fp, #-12]
 164:	e2033001 	and	r3, r3, #1
 168:	e6ef3073 	uxtb	r3, r3
 16c:	e3530000 	cmp	r3, #0
 170:	0a000007 	beq	194 <Java_com_UltimateImgSpider_SpiderService_jniFindNextUrlToLoad+0x194>
 174:	e3a00004 	mov	r0, #4
 178:	e59f3290 	ldr	r3, [pc, #656]	; 410 <Java_com_UltimateImgSpider_SpiderService_jniFindNextUrlToLoad+0x410>
 17c:	e08f3003 	add	r3, pc, r3
 180:	e1a01003 	mov	r1, r3
 184:	e59f3288 	ldr	r3, [pc, #648]	; 414 <Java_com_UltimateImgSpider_SpiderService_jniFindNextUrlToLoad+0x414>
 188:	e08f3003 	add	r3, pc, r3
 18c:	e1a02003 	mov	r2, r3
 190:	ebfffffe 	bl	0 <__android_log_print>
 194:	e51b3010 	ldr	r3, [fp, #-16]
 198:	e2833018 	add	r3, r3, #24
 19c:	e1a00003 	mov	r0, r3
 1a0:	ebfffffe 	bl	0 <Java_com_UltimateImgSpider_SpiderService_jniFindNextUrlToLoad>
 1a4:	e50b001c 	str	r0, [fp, #-28]
 1a8:	e51b301c 	ldr	r3, [fp, #-28]
 1ac:	e3530000 	cmp	r3, #0
 1b0:	0a00002e 	beq	270 <Java_com_UltimateImgSpider_SpiderService_jniFindNextUrlToLoad+0x270>
 1b4:	e51b301c 	ldr	r3, [fp, #-28]
 1b8:	e2833030 	add	r3, r3, #48	; 0x30
 1bc:	e51b000c 	ldr	r0, [fp, #-12]
 1c0:	e1a01003 	mov	r1, r3
 1c4:	ebfffffe 	bl	0 <strcmp>
 1c8:	e1a03000 	mov	r3, r0
 1cc:	e3530000 	cmp	r3, #0
 1d0:	1a000024 	bne	268 <Java_com_UltimateImgSpider_SpiderService_jniFindNextUrlToLoad+0x268>
 1d4:	e51b301c 	ldr	r3, [fp, #-28]
 1d8:	e3a02000 	mov	r2, #0
 1dc:	e3822001 	orr	r2, r2, #1
 1e0:	e5c32008 	strb	r2, [r3, #8]
 1e4:	e3a02000 	mov	r2, #0
 1e8:	e5c32009 	strb	r2, [r3, #9]
 1ec:	e51b3010 	ldr	r3, [fp, #-16]
 1f0:	e5d32020 	ldrb	r2, [r3, #32]
 1f4:	e5d31021 	ldrb	r1, [r3, #33]	; 0x21
 1f8:	e1a01401 	lsl	r1, r1, #8
 1fc:	e1812002 	orr	r2, r1, r2
 200:	e5d31022 	ldrb	r1, [r3, #34]	; 0x22
 204:	e1a01801 	lsl	r1, r1, #16
 208:	e1812002 	orr	r2, r1, r2
 20c:	e5d33023 	ldrb	r3, [r3, #35]	; 0x23
 210:	e1a03c03 	lsl	r3, r3, #24
 214:	e1833002 	orr	r3, r3, r2
 218:	e2832001 	add	r2, r3, #1
 21c:	e51b3010 	ldr	r3, [fp, #-16]
 220:	e6ef1072 	uxtb	r1, r2
 224:	e3a00000 	mov	r0, #0
 228:	e1801001 	orr	r1, r0, r1
 22c:	e5c31020 	strb	r1, [r3, #32]
 230:	e1a01422 	lsr	r1, r2, #8
 234:	e6ef1071 	uxtb	r1, r1
 238:	e3a00000 	mov	r0, #0
 23c:	e1801001 	orr	r1, r0, r1
 240:	e5c31021 	strb	r1, [r3, #33]	; 0x21
 244:	e1a01822 	lsr	r1, r2, #16
 248:	e6ef1071 	uxtb	r1, r1
 24c:	e3a00000 	mov	r0, #0
 250:	e1801001 	orr	r1, r0, r1
 254:	e5c31022 	strb	r1, [r3, #34]	; 0x22
 258:	e1a02c22 	lsr	r2, r2, #24
 25c:	e3a01000 	mov	r1, #0
 260:	e1812002 	orr	r2, r1, r2
 264:	e5c32023 	strb	r2, [r3, #35]	; 0x23
 268:	e3a03000 	mov	r3, #0
 26c:	e50b301c 	str	r3, [fp, #-28]
 270:	e3a03000 	mov	r3, #0
 274:	e50b3024 	str	r3, [fp, #-36]	; 0x24
 278:	ea000037 	b	35c <Java_com_UltimateImgSpider_SpiderService_jniFindNextUrlToLoad+0x35c>
 27c:	e51b3018 	ldr	r3, [fp, #-24]
 280:	e5d32008 	ldrb	r2, [r3, #8]
 284:	e5d33009 	ldrb	r3, [r3, #9]
 288:	e1a03403 	lsl	r3, r3, #8
 28c:	e1833002 	orr	r3, r3, r2
 290:	e6ff3073 	uxth	r3, r3
 294:	e3530000 	cmp	r3, #0
 298:	1a000029 	bne	344 <Java_com_UltimateImgSpider_SpiderService_jniFindNextUrlToLoad+0x344>
 29c:	e55b3027 	ldrb	r3, [fp, #-39]	; 0x27
 2a0:	e3530000 	cmp	r3, #0
 2a4:	0a000011 	beq	2f0 <Java_com_UltimateImgSpider_SpiderService_jniFindNextUrlToLoad+0x2f0>
 2a8:	e3a03000 	mov	r3, #0
 2ac:	e54b3027 	strb	r3, [fp, #-39]	; 0x27
 2b0:	e51b3018 	ldr	r3, [fp, #-24]
 2b4:	e2832030 	add	r2, r3, #48	; 0x30
 2b8:	e51b3018 	ldr	r3, [fp, #-24]
 2bc:	e5d3100a 	ldrb	r1, [r3, #10]
 2c0:	e5d3300b 	ldrb	r3, [r3, #11]
 2c4:	e1a03403 	lsl	r3, r3, #8
 2c8:	e1833001 	orr	r3, r3, r1
 2cc:	e6ff3073 	uxth	r3, r3
 2d0:	e15b12b6 	ldrh	r1, [fp, #-38]	; 0xffffffda
 2d4:	e51b000c 	ldr	r0, [fp, #-12]
 2d8:	ebfffffe 	bl	0 <Java_com_UltimateImgSpider_SpiderService_jniFindNextUrlToLoad>
 2dc:	e1a03000 	mov	r3, r0
 2e0:	e50b3014 	str	r3, [fp, #-20]
 2e4:	e51b3018 	ldr	r3, [fp, #-24]
 2e8:	e50b301c 	str	r3, [fp, #-28]
 2ec:	ea000014 	b	344 <Java_com_UltimateImgSpider_SpiderService_jniFindNextUrlToLoad+0x344>
 2f0:	e51b3018 	ldr	r3, [fp, #-24]
 2f4:	e2832030 	add	r2, r3, #48	; 0x30
 2f8:	e51b3018 	ldr	r3, [fp, #-24]
 2fc:	e5d3100a 	ldrb	r1, [r3, #10]
 300:	e5d3300b 	ldrb	r3, [r3, #11]
 304:	e1a03403 	lsl	r3, r3, #8
 308:	e1833001 	orr	r3, r3, r1
 30c:	e6ff3073 	uxth	r3, r3
 310:	e15b12b6 	ldrh	r1, [fp, #-38]	; 0xffffffda
 314:	e51b000c 	ldr	r0, [fp, #-12]
 318:	ebfffffe 	bl	0 <Java_com_UltimateImgSpider_SpiderService_jniFindNextUrlToLoad>
 31c:	e1a03000 	mov	r3, r0
 320:	e50b3008 	str	r3, [fp, #-8]
 324:	e51b2008 	ldr	r2, [fp, #-8]
 328:	e51b3014 	ldr	r3, [fp, #-20]
 32c:	e1520003 	cmp	r2, r3
 330:	9a000003 	bls	344 <Java_com_UltimateImgSpider_SpiderService_jniFindNextUrlToLoad+0x344>
 334:	e51b3008 	ldr	r3, [fp, #-8]
 338:	e50b3014 	str	r3, [fp, #-20]
 33c:	e51b3018 	ldr	r3, [fp, #-24]
 340:	e50b301c 	str	r3, [fp, #-28]
 344:	e51b0018 	ldr	r0, [fp, #-24]
 348:	ebfffffe 	bl	0 <Java_com_UltimateImgSpider_SpiderService_jniFindNextUrlToLoad>
 34c:	e50b0018 	str	r0, [fp, #-24]
 350:	e51b3024 	ldr	r3, [fp, #-36]	; 0x24
 354:	e2833001 	add	r3, r3, #1
 358:	e50b3024 	str	r3, [fp, #-36]	; 0x24
 35c:	e51b2024 	ldr	r2, [fp, #-36]	; 0x24
 360:	e51b3010 	ldr	r3, [fp, #-16]
 364:	e5d31024 	ldrb	r1, [r3, #36]	; 0x24
 368:	e5d30025 	ldrb	r0, [r3, #37]	; 0x25
 36c:	e1a00400 	lsl	r0, r0, #8
 370:	e1801001 	orr	r1, r0, r1
 374:	e5d30026 	ldrb	r0, [r3, #38]	; 0x26
 378:	e1a00800 	lsl	r0, r0, #16
 37c:	e1801001 	orr	r1, r0, r1
 380:	e5d33027 	ldrb	r3, [r3, #39]	; 0x27
 384:	e1a03c03 	lsl	r3, r3, #24
 388:	e1833001 	orr	r3, r3, r1
 38c:	e1520003 	cmp	r2, r3
 390:	3affffb9 	bcc	27c <Java_com_UltimateImgSpider_SpiderService_jniFindNextUrlToLoad+0x27c>
 394:	e51b3030 	ldr	r3, [fp, #-48]	; 0x30
 398:	e5933000 	ldr	r3, [r3]
 39c:	e59332a8 	ldr	r3, [r3, #680]	; 0x2a8
 3a0:	e51b0030 	ldr	r0, [fp, #-48]	; 0x30
 3a4:	e51b1038 	ldr	r1, [fp, #-56]	; 0x38
 3a8:	e51b200c 	ldr	r2, [fp, #-12]
 3ac:	e12fff33 	blx	r3
 3b0:	e51b301c 	ldr	r3, [fp, #-28]
 3b4:	e3530000 	cmp	r3, #0
 3b8:	0a000007 	beq	3dc <Java_com_UltimateImgSpider_SpiderService_jniFindNextUrlToLoad+0x3dc>
 3bc:	e51b301c 	ldr	r3, [fp, #-28]
 3c0:	e2833030 	add	r3, r3, #48	; 0x30
 3c4:	e50b3020 	str	r3, [fp, #-32]
 3c8:	e51b3010 	ldr	r3, [fp, #-16]
 3cc:	e2833018 	add	r3, r3, #24
 3d0:	e51b001c 	ldr	r0, [fp, #-28]
 3d4:	e1a01003 	mov	r1, r3
 3d8:	ebfffffe 	bl	0 <Java_com_UltimateImgSpider_SpiderService_jniFindNextUrlToLoad>
 3dc:	e51b3030 	ldr	r3, [fp, #-48]	; 0x30
 3e0:	e5933000 	ldr	r3, [r3]
 3e4:	e593329c 	ldr	r3, [r3, #668]	; 0x29c
 3e8:	e51b0030 	ldr	r0, [fp, #-48]	; 0x30
 3ec:	e51b1020 	ldr	r1, [fp, #-32]
 3f0:	e12fff33 	blx	r3
 3f4:	e1a03000 	mov	r3, r0
 3f8:	e1a00003 	mov	r0, r3
 3fc:	e24bd004 	sub	sp, fp, #4
 400:	e8bd8800 	pop	{fp, pc}
 404:	000003dc 	.word	0x000003dc
 408:	00000000 	.word	0x00000000
 40c:	00000580 	.word	0x00000580
 410:	00000298 	.word	0x00000298
 414:	0000045c 	.word	0x0000045c
